(dp0
S'33.5'
p1
(dp2
S'to'
p3
S'Jadeja'
p4
sS'what'
p5
S'no run'
p6
sS'from'
p7
S' Southee'
p8
sS'why'
p9
S'\nback of a length outside off  left alone  </p>]'
p10
ssS'35.2'
p11
(dp12
g3
S'Dhoni'
p13
sg5
S'1 run'
p14
sg7
S' Southee'
p15
sg9
S'\nseemed to lose his balance after he shuffled across and whipped it off his hips to long leg. Plonks his bat down into the pitch to steady himself and picks up the run  </p>]'
p16
ssS'35.3'
p17
(dp18
g3
S'Jadeja'
p19
sg5
S'1 run'
p20
sg7
S' Southee'
p21
sg9
S'\nlength ball on the leg stump as he tucks it away to deep square leg  </p>]'
p22
ssS'35.1'
p23
(dp24
g3
S'Dhoni'
p25
sg5
S'no run'
p26
sg7
S' Southee'
p27
sg9
S'\nback of a length outside off as Dhoni lets it go  </p>]'
p28
ssS'35.6'
p29
(dp30
g3
S'Dhoni'
p31
sg5
S'no run'
p32
sg7
S' Southee'
p33
sg9
S'\ndabs it to point as this is back of a length outside off  </p>]'
p34
ssS'35.4'
p35
(dp36
g3
S'Dhoni'
p37
sg5
S'no run'
p38
sg7
S' Southee'
p39
sg9
S"\nback of a length outside off and Dhoni doesn't bother with this either  </p>]"
p40
ssS'35.5'
p41
(dp42
g3
S'Dhoni'
p43
sg5
S'no run'
p44
sg7
S' Southee'
p45
sg9
S'\ntouch fuller  but it is still a little too wide to interest Dhoni  </p>]'
p46
ssS'7.2'
p47
(dp48
g3
S'Sharma'
p49
sg5
S'no run'
p50
sg7
S' Southee'
p51
sg9
S'\nback of a length and in that lovely off stump channel again as he opens the face a touch and guides it to point  </p>]'
p52
ssS'6.6'
p53
(dp54
g3
S'Sharma'
p55
sg5
S'1 run'
p56
sg7
S' Mills'
p57
sg9
S"\nfullish on off stump as he pushes down the pitch. Mills' boot can't do the job and they sneak a single to mid-off  </p>]"
p58
ssS'12.1'
p59
(dp60
g3
S'Rayudu'
p61
sg5
S'no run'
p62
sg7
S' Southee'
p63
sg9
S'\nfullish and just outside off  the perfect Test-match line  as Rayudu exhibits the front-foot leave  </p>]'
p64
ssS'7.1'
p65
(dp66
g3
S'Sharma'
p67
sg5
S'no run'
p68
sg7
S' Southee'
p69
sg9
S"\nhe's <b>dropped</b> it! Excellent delivery from Southee as he tests Rohit out in that channel just outside off. Pokes at it with very little footwork and a regulation outside edge goes just a touch low and to the left of Taylor who grasses it  </p>]"
p70
ssS'6.3'
p71
(dp72
g3
S'Sharma'
p73
sg5
S'no run'
p74
sg7
S' Mills'
p75
sg9
S'\nfullish on middle and off as he comes forward to defend  </p>]'
p76
ssS'12.6'
p77
(dp78
g3
S'Sharma'
p79
sg5
S'no run'
p80
sg7
S' Southee'
p81
sg9
S'\ngenerates good pace and height on this one too. Rohit sways away from the line of this bouncer outside off  </p>]'
p82
ssS'6.1'
p83
(dp84
g3
S'Sharma'
p85
sg5
S'2 runs'
p86
sg7
S' Mills'
p87
sg9
S"\noh  it's in the air  it's gone way  way  way up and Baz races after it  sticks out his hands but it falls just outside his reach. It was a fullish length ball and Rohit went for a loft over the bowler's head and it went straight up  </p>]"
p88
ssS'7.5'
p89
(dp90
g3
S'Sharma'
p91
sg5
S'1 run'
p92
sg7
S' Southee'
p93
sg9
S'\nshortish and angled in on middle as Rohit tucks it away with soft hands towards midwicket and he scampers off  </p>]'
p94
ssS'37.1'
p95
(dp96
g3
S'Dhoni'
p97
sg5
S'no run'
p98
sg7
S' Southee'
p99
sg9
S'\nback of a length outside off as Dhoni can only chop it down to mid-on with a horizontal bat  </p>]'
p100
ssS'37.2'
p101
(dp102
g3
S'Dhoni'
p103
sg5
S'1 run'
p104
sg7
S' Southee'
p105
sg9
S'\nfull on middle and leg as Dhoni clips it from the crease towards midwicket  </p>]'
p106
ssS'37.3'
p107
(dp108
g3
S'Jadeja'
p109
sg5
S'4 run'
p110
sg7
S' Southee'
p111
sg9
S"\nshort ball just outside leg stump and Jaddu goes back to hook and gets enough bat  actually it was a top edge  on it to get it fine and help himself to a four to long leg. Didn't look in full control  </p>]"
p112
ssS'37.4'
p113
(dp114
g3
S'Jadeja'
p115
sg5
S'no run'
p116
sg7
S' Southee'
p117
sg9
S'\nfullish on middle but Jadeja is behind it  </p>]'
p118
ssS'37.5'
p119
(dp120
g3
S'Jadeja'
p121
sg5
S'1 run'
p122
sg7
S' Southee'
p123
sg9
S'\nshort again  but this hook is played better. Took it from outside off stump and rolled his wrists down on it to find deep square leg  </p>]'
p124
ssS'37.6'
p125
(dp126
g3
S'Dhoni'
p127
sg5
g110
sg7
S' Southee'
p128
sg9
S"\neven Guptill can't stop that as Dhoni goes for a slap through the covers. Originally it looked like he'd gotten hold of that  but the ball seems to slow down as it neared the boundary. Too short and too wide from Southee  </p>]"
p129
ssS'10.1'
p130
(dp131
g3
S'Rayudu'
p132
sg5
S'no run'
p133
sg7
S' Mills'
p134
sg9
S'\n131 kph  dug in on off stump and he was looking to play first  but then pushes his wrists down and lets the bouncer go through around nose-height to the keeper  </p>]'
p135
ssS'10.3'
p136
(dp137
g3
S'Rayudu'
p138
sg5
S'1 run'
p139
sg7
S' Mills'
p140
sg9
S'\nopens the face as he runs this full one outside off to third man  </p>]'
p141
ssS'10.2'
p142
(dp143
g3
S'Rayudu'
p144
sg5
S'no run'
p145
sg7
S' Mills'
p146
sg9
S'\nwell and truly on the back foot is Rayudu as he blocks this length ball outside off. Sucker ball outside off coming up?  </p>]'
p147
ssS'10.5'
p148
(dp149
g3
S'Sharma'
p150
sg5
S'1 run'
p151
sg7
S' Mills'
p152
sg9
S'\nfullish and tailing down leg as he turns it towards midwicket off the front foot  </p>]'
p153
ssS'10.4'
p154
(dp155
g3
S'Sharma'
p156
sg5
S'no run'
p157
sg7
S' Mills'
p158
sg9
S'\nback of a length just outside off stump. Could have flayed that over the covers  but at two wickets down  Rohit chooses to let it go  </p>]'
p159
ssS'10.6'
p160
(dp161
g3
S'Rayudu'
p162
sg5
S'no run'
p163
sg7
S' Mills'
p164
sg9
S"\nshort ball  moving in at him but with Mills' slightly lesser pace the batsman sees it early and drops his wrists  </p>]"
p165
ssS'43.1'
p166
(dp167
g3
S'Dhoni'
p168
sg5
S'1 run'
p169
sg7
S' Neesham'
p170
sg9
S'\nshort and wide outside off stump as Dhoni drags it towards midwicket with a one-legged pull  </p>]'
p171
ssS'33.3'
p172
(dp173
g3
S'Jadeja'
p174
sg5
S'no run'
p175
sg7
S' Southee'
p176
sg9
S"\nfull and just outside off again as this time Jadeja leans forward and pushes into the covers. He wants the single but Dhoni waits for the ball to go past the diving Neesham  but it doesn't. No single  </p>]"
p177
ssS'44.6'
p178
(dp179
g3
S'Jadeja'
p180
sg5
g110
sg7
S' Mills'
p181
sg9
S'\nanother very silly ball from Mills and he knows it. It was short  it was slow and all Jaddu had to do was swivel around and pull it past short fine. The fielder should really have stopped that  but he dives over it!  </p>]'
p182
ssS'16.6'
p183
(dp184
g3
S'Sharma'
p185
sg5
S'no run'
p186
sg7
S' NL McCullum'
p187
sg9
S'\nnudges it into the leg side but not far enough to evade the bowler  </p>]'
p188
ssS'16.5'
p189
(dp190
g3
S'Sharma'
p191
sg5
S'no run'
p192
sg7
S' NL McCullum'
p193
sg9
S'\nfull on middle and leg as he turns it towards midwicket  </p>]'
p194
ssS'16.4'
p195
(dp196
g3
S'Rayudu'
p197
sg5
S'1 run'
p198
sg7
S' NL McCullum'
p199
sg9
S'\nholds it back a little and it allows Rayudu to clip it into the leg side for a single  </p>]'
p200
ssS'16.3'
p201
(dp202
g3
S'Rayudu'
p203
sg5
S'no run'
p204
sg7
S' NL McCullum'
p205
sg9
S'\nflighted on off as he defends off the front foot  </p>]'
p206
ssS'16.2'
p207
(dp208
g3
S'Sharma'
p209
sg5
S'1 run'
p210
sg7
S' NL McCullum'
p211
sg9
S'\ntossed up and it goes through the covers for a single as Rohit leans nicely forward  </p>]'
p212
ssS'16.1'
p213
(dp214
g3
S'Sharma'
p215
sg5
S'no run'
p216
sg7
S' NL McCullum'
p217
sg9
S'\nits a bit short and pitched outside leg stump  and there is some turn as Rohit pushes it off to square leg  </p>]'
p218
ssS'44.1'
p219
(dp220
g3
S'Dhoni'
p221
sg5
S'1 run'
p222
sg7
S' Mills'
p223
sg9
S'\nchips down the track and nudges it square of the short fine leg as this was on a length and on the pads as Mills continues around the wicket  </p>]'
p224
ssS'35.335.335.335.335.335.335.335.335.335.3'
p225
(dp226
g3
S'Jadeja'
p227
sg5
S'1 wide'
p228
sg7
S' Southee'
p229
sg9
S'\nthe bowler wanted to outsmart the batsman but has to end up paying for it. Jaddu makes some room and advances but Southee pushes it well wide outside off. Umpire calls him on it  but it might have been a harsh one  </p>]'
p230
ssS'43.2'
p231
(dp232
g3
S'Jadeja'
p233
sg5
g110
sg7
S' Neesham'
p234
sg9
S'\nthe opportunity was there and Jaddu takes it. Shorish ball outside off stump and he gets it fine of the short third man with a little late cut  </p>]'
p235
ssS'43.4'
p236
(dp237
g3
S'Dhoni'
p238
sg5
S'1 run'
p239
sg7
S' Neesham'
p240
sg9
S'\nyorker on middle and leg as he digs it out to long-on  </p>]'
p241
ssS'14.4'
p242
(dp243
g3
S'Rayudu'
p244
sg5
S'no run'
p245
sg7
S' Southee'
p246
sg9
S'\nvery compact there as this was a good length ball outside off. Defended off the back foot  </p>]'
p247
ssS'45.3'
p248
(dp249
g3
S'Jadeja'
p250
sg5
S'no run'
p251
sg7
S' Neesham'
p252
sg9
S'\nshortish and outside off this time as he changes his pace. Jaddu can only guide it to point this time  </p>]'
p253
ssS'45.2'
p254
(dp255
g3
S'Dhoni'
p256
sg5
S'1 run'
p257
sg7
S' Neesham'
p258
sg9
S'\nanother short ball  but this one rises considerably higher to ruin his timing. Gets a top edge towards midwicket and picks up a single  </p>]'
p259
ssS'45.1'
p260
(dp261
g3
S'Dhoni'
p262
sg5
g110
sg7
S' Neesham'
p263
sg9
S'\nhe was looking to clean up the bowler there! Neesh  thank your lucky stars you were quick enough to duck underneath that absolute rocket from one of the hardest hitters of the cricket ball! Short  with a bit of room outside off and he flat-bats it murderously down the ground for his fifty  </p>]'
p264
ssS'45.6'
p265
(dp266
g3
S'Jadeja'
p267
sg5
S'no run'
p268
sg7
S' Neesham'
p269
sg9
S'\nfull and just outside off as he punches it down the ground  but Neesham gets down on his follow through  </p>]'
p270
ssS'45.5'
p271
(dp272
g3
S'Dhoni'
p273
sg5
S'1 run'
p274
sg7
S' Neesham'
p275
sg9
S'\ngoes back and a little to the leg side as he works this short ball outside off through to deep point with an open face  </p>]'
p276
ssS'45.4'
p277
(dp278
g3
S'Jadeja'
p279
sg5
S'1 run'
p280
sg7
S' Neesham'
p281
sg9
S'\n120 kph offcutter again as Jaddu stays back and cuts it to deep point for only a single  </p>]'
p282
ssS'26.6'
p283
(dp284
g3
S'Dhoni'
p285
sg5
S'1 run'
p286
sg7
S' NL McCullum'
p287
sg9
S'\ntossed up on the pads as Dhoni goes forward and nudges it through midwicket  </p>]'
p288
ssS'26.4'
p289
(dp290
g3
S'Sharma'
p291
sg5
S'no run'
p292
sg7
S' NL McCullum'
p293
sg9
S'\nlength delivery on middle as he stays in his crease and clips it towards square leg  </p>]'
p294
ssS'26.5'
p295
(dp296
g3
S'Sharma'
p297
sg5
S'1 run'
p298
sg7
S' NL McCullum'
p299
sg9
S'\ntossed up outside off stump as Rohit leans into a lovely-looking drive down to long-off  </p>]'
p300
ssS'26.2'
p301
(dp302
g3
S'Dhoni'
p303
sg5
S'no run'
p304
sg7
S' NL McCullum'
p305
sg9
S'\ntossed up outside off as he pushes it into he covers. Lunged forward to reach the pitch  </p>]'
p306
ssS'26.3'
p307
(dp308
g3
S'Dhoni'
p309
sg5
S'1 run'
p310
sg7
S' NL McCullum'
p311
sg9
S'\nchips down the track as this is tossed up on middle and is driven down the ground  </p>]'
p312
ssS'26.1'
p313
(dp314
g3
S'Sharma'
p315
sg5
S'1 run'
p316
sg7
S' NL McCullum'
p317
sg9
S'\nflighted on the pads as he tucks it away towards vacant square leg  </p>]'
p318
ssS'14.5'
p319
(dp320
g3
S'Rayudu'
p321
sg5
S'no run'
p322
sg7
S' Southee'
p323
sg9
S'\nfullish and just outside off stump  Rayudu is wary of a little nibble of away swing as he lets it go  </p>]'
p324
ssS'12.3'
p325
(dp326
g3
S'Rayudu'
p327
sg5
S'no run'
p328
sg7
S' Southee'
p329
sg9
S'\nback of a length and he uses the bit of width on it to steer it towards the point region  </p>]'
p330
ssS'14.6'
p331
(dp332
g3
S'Rayudu'
p333
sg5
S'no run'
p334
sg7
S' Southee'
p335
sg9
S'\ntouch short outside off as he cuts it quite nicely to gully  </p>]'
p336
ssS'14.1'
p337
(dp338
g3
S'Sharma'
p339
sg5
S'1 run'
p340
sg7
S' Southee'
p341
sg9
S'\nfull and straight and Rohit is able to come forward and tuck it through square leg  </p>]'
p342
ssS'14.3'
p343
(dp344
g3
S'Rayudu'
p345
sg5
S'no run'
p346
sg7
S' Southee'
p347
sg9
S"\nfloated outside off but Rayudu cannot get his timing proper. Wen't forward enough and should have drilled that through the covers  but I guess it came a little slower off the pitch  </p>]"
p348
ssS'12.2'
p349
(dp350
g3
S'Rayudu'
p351
sg5
S'no run'
p352
sg7
S' Southee'
p353
sg9
S'\ntargets the middle stump with a fullish ball  draws the batsman forward to block  </p>]'
p354
ssS'24.4'
p355
(dp356
g3
S'Rayudu'
p357
sg5
S'no run'
p358
sg7
S' NL McCullum'
p359
sg9
S'\ntouch of width and though he was stuck in the crease  he guides the ball into the covers  </p>]'
p360
ssS'24.5'
p361
(dp362
g3
S'Rayudu'
p363
sg5
S'6 run'
p364
sg7
S' NL McCullum'
p365
sg9
S"\nanother slog that goes over the ropes  the good thing with that was he was hitting with the turn even if he hand't reached the pitch. Full swing of the bat to this length ball on leg stump  </p>]"
p366
ssS'24.6'
p367
(dp368
g3
S'Rayudu'
p369
sg5
S'no run'
p370
sg7
S' NL McCullum'
p371
sg9
S'\ntossed up with a bit of room as he drives solidly  but straight to the man at cover  </p>]'
p372
ssS'14.2'
p373
(dp374
g3
S'Rayudu'
p375
sg5
S'no run'
p376
sg7
S' Southee'
p377
sg9
S'\nwide of the crease for a change in angle as this is pitched back of length and makes Rayudu guide it to gully with an open face  </p>]'
p378
ssS'6.5'
p379
(dp380
g3
S'Sharma'
p381
sg5
S'no run'
p382
sg7
S' Mills'
p383
sg9
S'\nback of a length and it darts in off the pitch as Rohit chops into the covers  </p>]'
p384
ssS'24.2'
p385
(dp386
g3
S'Rayudu'
p387
sg5
S'no run'
p388
sg7
S' NL McCullum'
p389
sg9
S'\ntossed up on off stump as he comes forward to block  </p>]'
p390
ssS'24.3'
p391
(dp392
g3
S'Rayudu'
p393
sg5
S'no run'
p394
sg7
S' NL McCullum'
p395
sg9
S'\nfullish on middle and Rayudu presents a solid straight bat  </p>]'
p396
ssS'22.2'
p397
(dp398
g3
S'Sharma'
p399
sg5
S'1 run'
p400
sg7
S' NL McCullum'
p401
sg9
S'\ntossed up outside off stump as he leans into a drive through the covers  </p>]'
p402
ssS'22.3'
p403
(dp404
g3
S'Rayudu'
p405
sg5
S'no run'
p406
sg7
S' NL McCullum'
p407
sg9
S'\nfull and darted in on middle as he defends back to the bowler  </p>]'
p408
ssS'49.5'
p409
(dp410
g3
S'Jadeja'
p411
sg5
S'1 leg bye'
p412
sg7
S' Neesham'
p413
sg9
S"\nfull and on the pads again as Jaddu looks to tickle away fine  but can't get bat to it  </p>]"
p414
ssS'6.4'
p415
(dp416
g3
S'Sharma'
p417
sg5
g364
sg7
S' Mills'
p418
sg9
S"\ncharges him  that last loft did not faze Rohit and he goes through with the shot. Didn't get all of it but the short straight boundaries come to his aid. Got a little too under it and it hit a little higher on the bat than he would have liked  but he got the result  </p>]"
p419
ssS'22.6'
p420
(dp421
g3
S'Sharma'
p422
sg5
S'no run'
p423
sg7
S' NL McCullum'
p424
sg9
S'\ntossed up on off as Rohit leans forward and pushes down the pitch  </p>]'
p425
ssS'49.2'
p426
(dp427
g3
S'Dhoni'
p428
sg5
g364
sg7
S' Neesham'
p429
sg9
S"\nwhack! Don't bowl length to me  Dhoni  seemed to say with this shot. Got forward and slammed it over wide-long on. Came off the toe  but it is Dhoni after all  </p>]"
p430
ssS'22.4'
p431
(dp432
g3
S'Rayudu'
p433
sg5
S'no run'
p434
sg7
S' NL McCullum'
p435
sg9
S'\nanother quick  flat delivery  though this time it could be because of Rayudu rushing down the track. Keeps him to a defensive push  </p>]'
p436
ssS'22.5'
p437
(dp438
g3
S'Rayudu'
p439
sg5
S'1 run'
p440
sg7
S' NL McCullum'
p441
sg9
S'\ndrives uppishly and just past short mid-wicket as McCullum pegs away on an off stump line  </p>]'
p442
ssS'7.6'
p443
(dp444
g3
S'Rahane'
p445
sg5
S'no run'
p446
sg7
S' Southee'
p447
sg9
S'\nback of a length just outside off and Rahane pulls out the back foot defence from the coaching manual  </p>]'
p448
ssS'43.6'
p449
(dp450
g3
S'Dhoni'
p451
sg5
S'1 run'
p452
sg7
S' Neesham'
p453
sg9
S'\nlength ball on and around the stumps as Dhoni shuffles across and nudges it to the man at 45 degrees for a quick single  </p>]'
p454
ssS'6.2'
p455
(dp456
g3
S'Sharma'
p457
sg5
S'no run'
p458
sg7
S' Mills'
p459
sg9
S'\nshortish and on and around off stump as he goes back and taps it towards the covers  </p>]'
p460
ssS'7.4'
p461
(dp462
g3
S'Sharma'
p463
sg5
S'no run'
p464
sg7
S' Southee'
p465
sg9
S'\nbouncer now  right on off stump as Rohit prefers to sway away  </p>]'
p466
ssS'34.6'
p467
(dp468
g3
S'Jadeja'
p469
sg5
S'no run'
p470
sg7
S' NL McCullum'
p471
sg9
S'\nleans right forward to get to the pitch and nudges it down the ground. N Mac dives to his left and gets a hand to it. The batsman think about running on the misfield  but Jaddu sends his captain back  </p>]'
p472
ssS'34.5'
p473
(dp474
g3
S'Jadeja'
p475
sg5
S'no run'
p476
sg7
S' NL McCullum'
p477
sg9
S'\nexcellent line to the left-hander  and he gets a little bit of turn too. Jadeja defends off the front  foot and gets a thick outside edge  </p>]'
p478
ssS'12.4'
p479
(dp480
g3
S'Rayudu'
p481
sg5
S'no run'
p482
sg7
S' Southee'
p483
sg9
S'\ntouch wide again as Rayudu leans back and rolls his wrists on top of the ball as he guides it to point  </p>]'
p484
ssS'34.3'
p485
(dp486
g3
S'Jadeja'
p487
sg5
S'no run'
p488
sg7
S' NL McCullum'
p489
sg9
S'\ntossed up on middle and off as he draws Jadeja forward and into a defensive push  </p>]'
p490
ssS'34.2'
p491
(dp492
g3
S'Jadeja'
p493
sg5
S'no run'
p494
sg7
S' NL McCullum'
p495
sg9
S'\nslowed it up and targets middle as Jadeja gets an inside edge onto pad  </p>]'
p496
ssS'34.1'
p497
(dp498
g3
S'Dhoni'
p499
sg5
S'1 run'
p500
sg7
S' NL McCullum'
p501
sg9
S'\nshort ball on leg stump but Dhoni  though he did rock back  and just nudges it towards deep square leg  </p>]'
p502
ssS'24.1'
p503
(dp504
g3
S'Sharma'
p505
sg5
S'1 run'
p506
sg7
S' NL McCullum'
p507
sg9
S'\npushed through on middle as he tucks it away behind square leg  </p>]'
p508
ssS'3.6'
p509
(dp510
g3
S'Rahane'
p511
sg5
S'no run'
p512
sg7
S' Southee'
p513
sg9
S'\nfullish and around off stump as he comes forward to defend  </p>]'
p514
ssS'3.4'
p515
(dp516
g3
S'Sharma'
p517
sg5
S'1 run'
p518
sg7
S' Southee'
p519
sg9
S'\ntouch short and on the body as Rohit rides it off his hips behind square leg  </p>]'
p520
ssS'3.5'
p521
(dp522
g3
S'Rahane'
p523
sg5
S'no run'
p524
sg7
S' Southee'
p525
sg9
S'\nfullish and around off stump again as he blocks off the front foot  </p>]'
p526
ssS'3.2'
p527
(dp528
g3
S'Kohli'
p529
sg5
S'OUT'
p530
sg7
S' Southee'
p531
sg9
S"\noh  he's gone! Kohli's top-edged a short ball! It was the first one he faced today and he went for the pull. I wonder if his weight was more on the front foot than it should have been  but the ball seemed to come at him a little quicker and all he can do is given an relatively easy skier to Jimmy Neesham at midwicket  </p>]"
p532
ssS'3.3'
p533
(dp534
g3
S'Rahane'
p535
sg5
S'1 run'
p536
sg7
S' Southee'
p537
sg9
S'\nfull and on off stump as he leans into a good drive through the extra cover area. Off the mark straight away  </p>]'
p538
ssS'42.3'
p539
(dp540
g3
S'Dhoni'
p541
sg5
S'1 run'
p542
sg7
S' Mills'
p543
sg9
S'\nmoves across to off stump as he guides this just in front of point to pick up a single as Mills pushes the back of a length ball across him  </p>]'
p544
ssS'3.1'
p545
(dp546
g3
S'Sharma'
p547
sg5
S'1 run'
p548
sg7
S' Southee'
p549
sg9
S'\nboth of these bowlers have been inviting the drive and there is one  not quite timed and it just had enough on it to sail over the head of mid-on. Hit the bat low and on the inside half as he looked to drive on the up through the off side  </p>]'
p550
ssS'2.3'
p551
(dp552
g3
S'Sharma'
p553
sg5
S'no run'
p554
sg7
S' Mills'
p555
sg9
S'\nlovely straight bat from Rohit again. It was a very full ball on off stump as well  with just a touch of away movement  </p>]'
p556
ssS'2.2'
p557
(dp558
g3
S'Kohli'
p559
sg5
S'1 run'
p560
sg7
S' Mills'
p561
sg9
S'\nlength ball on middle as Kohli stays back and dabs it in front of midwicket. Nathan McCullum cannot prevent the quick single  </p>]'
p562
ssS'2.1'
p563
(dp564
g3
S'Kohli'
p565
sg5
S'no run'
p566
sg7
S' Mills'
p567
sg9
S'\nright up there on off stump as Kohli is on the front foot and whips a drive to mid-off.  </p>]'
p568
ssS'36.6'
p569
(dp570
g3
S'Jadeja'
p571
sg5
S'no run'
p572
sg7
S' NL McCullum'
p573
sg9
S'\nflighted on middle as Jaddu reaches forward and whips it to midwicket  </p>]'
p574
ssS'36.1'
p575
(dp576
g3
S'Jadeja'
p577
sg5
S'no run'
p578
sg7
S' NL McCullum'
p579
sg9
S'\ntossed up on off stump as Jaddu comes forward to block  </p>]'
p580
ssS'2.6'
p581
(dp582
g3
S'Kohli'
p583
sg5
S'no run'
p584
sg7
S' Mills'
p585
sg9
S'\nchips down the track  while making sure he was making room outside leg. Mills shortens his length and Kohli adjusts as he steers the ball to point  </p>]'
p586
ssS'2.5'
p587
(dp588
g3
S'Kohli'
p589
sg5
S'no run'
p590
sg7
S' Mills'
p591
sg9
S'\nfullish and on and around off stump as Kohli plonks his front foot forward and blocks  </p>]'
p592
ssS'2.4'
p593
(dp594
g3
S'Sharma'
p595
sg5
S'1 run'
p596
sg7
S' Mills'
p597
sg9
S"\ngoes forward and pokes his bat away from the body with an airy drive  didn't see this one dart back in at him  I think. Lucky to get an inside edge that runs off through square leg.  </p>]"
p598
ssS'20.1'
p599
(dp600
g3
S'Rayudu'
p601
sg5
g364
sg7
S' NL McCullum'
p602
sg9
S"\nthere's some relief! Tossed up just outside off stump and Rayudu takes full toll of the room on offer. Swings with all his might and the ball just about makes it to the boundary rope on the full  </p>]"
p603
ssS'20.2'
p604
(dp605
g3
S'Rayudu'
p606
sg5
S'1 run'
p607
sg7
S' NL McCullum'
p608
sg9
S'\nanother skip down the track and drilled to long-off. Flighted that one outside off again  </p>]'
p609
ssS'20.3'
p610
(dp611
g3
S'Sharma'
p612
sg5
S'no run'
p613
sg7
S' NL McCullum'
p614
sg9
S'\npushed through quite full and across the right-hander who drives into the cover  </p>]'
p615
ssS'20.4'
p616
(dp617
g3
S'Sharma'
p618
sg5
g110
sg7
S' NL McCullum'
p619
sg9
S'\nviolent slog meant to go over midwicket  but Rohit survives another edge! Too thick for the keeper to take it  too quick for him too  </p>]'
p620
ssS'20.5'
p621
(dp622
g3
S'Sharma'
p623
sg5
S'no run'
p624
sg7
S' NL McCullum'
p625
sg9
S'\nholds this back as Rohit looks to drive down the ground and it goes back uppishly to the bowler  Nathan dives for it but goes on the bounce  </p>]'
p626
ssS'20.6'
p627
(dp628
g3
S'Sharma'
p629
sg5
S'no run'
p630
sg7
S' NL McCullum'
p631
sg9
S'\nfullish and on the stumps as he nudges it towards midwicket  </p>]'
p632
ssS'49.6'
p633
(dp634
g3
S'Dhoni'
p635
sg5
g364
sg7
S' Neesham'
p636
sg9
S"\nhe has crunched it and it clears the banks again  that's the second time he has put the ball in the trees beyond the midwicket boundary. It was a scrambled-seam length ball and Dhoni saw it early and smacks it away. What a finish by the India captain!  </p>]"
p637
ssS'47.347.347.347.347.347.347.347.347.347.3'
p638
(dp639
g3
S'Jadeja'
p640
sg5
g228
sg7
S' Bennett'
p641
sg9
S'\nanother wide  as he looks for the full yorker outside off. Jaddu tries to reach  but then pulls away  </p>]'
p642
ssS'46.3'
p643
(dp644
g3
S'Dhoni'
p645
sg5
S'1 run'
p646
sg7
S' Mills'
p647
sg9
S'\nclips it straight to short fine leg as this is length on leg stump. Lucky for Mills  </p>]'
p648
ssS'42.1'
p649
(dp650
g3
S'Dhoni'
p651
sg5
S'no run'
p652
sg7
S' Mills'
p653
sg9
S'\nback of a length on the pads as Dhoni jumps off his feet to keep the ball down  </p>]'
p654
ssS'22.1'
p655
(dp656
g3
S'Sharma'
p657
sg5
S'no run'
p658
sg7
S' NL McCullum'
p659
sg9
S'\nno spin that time  Rohit was looking for it as he set up for the whip through midwicket. Has to settle for a back foot push to the bowler  </p>]'
p660
ssS'49.3'
p661
(dp662
g3
S'Dhoni'
p663
sg5
S'1 run'
p664
sg7
S' Neesham'
p665
sg9
S'\nshort ball as he goes back and pulls strongly. Goes on the bounce to deep square leg  </p>]'
p666
ssS'39.1'
p667
(dp668
g3
S'Dhoni'
p669
sg5
S'no run'
p670
sg7
S' Bennett'
p671
sg9
S'\nback of a length outside off as Dhoni is deep in his crease and cuts into the covers  </p>]'
p672
ssS'21.5'
p673
(dp674
g3
S'Rayudu'
p675
sg5
S'1 run'
p676
sg7
S' Neesham'
p677
sg9
S'\nshortish  around middle and leg as he works it into the square leg region and scurries through  </p>]'
p678
ssS'49.1'
p679
(dp680
g3
S'Jadeja'
p681
sg5
S'1 run'
p682
sg7
S' Neesham'
p683
sg9
S'\nlength ball well wide of off stump as he stays back and drags this one through midwicket for a single  </p>]'
p684
ssS'40.2'
p685
(dp686
g3
S'Dhoni'
p687
sg5
S'no run'
p688
sg7
S' Williamson'
p689
sg9
S"\nfriendly full toss on off stump as Dhoni looks to hit it a little too hard and doesn't time it or place it. Straight to midwicket  </p>]"
p690
ssS'40.3'
p691
(dp692
g3
S'Dhoni'
p693
sg5
S'1 run'
p694
sg7
S' Williamson'
p695
sg9
S'\ntossed up outside off as he drives all along the ground to long-off  </p>]'
p696
ssS'40.1'
p697
(dp698
g3
S'Dhoni'
p699
sg5
S'no run'
p700
sg7
S' Williamson'
p701
sg9
S'\ntossed up on middle as he punches it back to the bowler  </p>]'
p702
ssS'40.6'
p703
(dp704
g3
S'Jadeja'
p705
sg5
S'no run'
p706
sg7
S' Williamson'
p707
sg9
S'\ntossed up on middle as he comes forward and keeps it out  </p>]'
p708
ssS'40.4'
p709
(dp710
g3
S'Jadeja'
p711
sg5
S'no run'
p712
sg7
S' Williamson'
p713
sg9
S'\nlength on and around off stump he he dabs it through towards point  </p>]'
p714
ssS'40.5'
p715
(dp716
g3
S'Jadeja'
p717
sg5
g364
sg7
S' Williamson'
p718
sg9
S'\nfull and angled into the pads as he goes down on one knee and slog-sweeps him flat over midwicket. Lots of power from the bottom hand there  </p>]'
p719
ssS'27.3'
p720
(dp721
g3
S'Dhoni'
p722
sg5
S'no run'
p723
sg7
S' Bennett'
p724
sg9
S'\nback of a length outside off as he shuffles in line and pushes to mid-off  </p>]'
p725
ssS'27.2'
p726
(dp727
g3
S'Dhoni'
p728
sg5
S'no run'
p729
sg7
S' Bennett'
p730
sg9
S'\nshortish and this one is right on middle as Dhoni stays back and clips it to midwicket  </p>]'
p731
ssS'27.1'
p732
(dp733
g3
S'Dhoni'
p734
sg5
S'2 runs'
p735
sg7
S' Bennett'
p736
sg9
S'\ngets it through between point and cover as he got on top of the bounce. Short ball just outside off as he leaps off his feet to get the leverage needed to cut through the off side  </p>]'
p737
ssS'21.6'
p738
(dp739
g3
S'Sharma'
p740
sg5
S'1 run'
p741
sg7
S' Neesham'
p742
sg9
S"\none foot is off the ground as he swivels on this short ball and pulls it down to long leg for a single. Wonderfully controlled  looks like he's getting into rhythm  </p>]"
p743
ssS'43.3'
p744
(dp745
g3
S'Jadeja'
p746
sg5
S'1 run'
p747
sg7
S' Neesham'
p748
sg9
S'\nslower  length ball on middle as he turns it away dead square on the leg side  </p>]'
p749
ssS'27.6'
p750
(dp751
g3
S'Dhoni'
p752
sg5
S'no run'
p753
sg7
S' Bennett'
p754
sg9
S'\nlength ball but it comes on a little too quickly for Dhoni to connect well enough with the flick. Heavy ball  they say  </p>]'
p755
ssS'27.5'
p756
(dp757
g3
S'Sharma'
p758
sg5
S'1 run'
p759
sg7
S' Bennett'
p760
sg9
S'\nfull and speared down leg as Rohit leans forward and flicks it through square leg.  </p>]'
p761
ssS'27.4'
p762
(dp763
g3
S'Dhoni'
p764
sg5
S'1 run'
p765
sg7
S' Bennett'
p766
sg9
S'\nfull and speared into middle as Dhoni  stuck in his crease  looks to whip it through the leg side but gets a thick outside leg to third man  </p>]'
p767
ssS'21.1'
p768
(dp769
g3
S'Rayudu'
p770
sg5
S'1 run'
p771
sg7
S' Neesham'
p772
sg9
S'\nshortish and on the pads again as Rayudu shuffles across and works it to long leg to bring up the fifty partnership  </p>]'
p773
ssS'42.2'
p774
(dp775
g3
S'Dhoni'
p776
sg5
S'2 runs'
p777
sg7
S' Mills'
p778
sg9
S'\nshortish on off stump as he goes deep in his crease and nudges it through midwicket. Calls for two and Jaddu responds handsomely. Easily done as the fifty partnership comes up  </p>]'
p779
ssS'12.5'
p780
(dp781
g3
S'Rayudu'
p782
sg5
S'1 run'
p783
sg7
S' Southee'
p784
sg9
S'\nnice short ball again  just outside off  as Rayudu jumps off his feet and dabs it with soft hands into the leg side. Very well controlled  </p>]'
p785
ssS'42.4'
p786
(dp787
g3
S'Jadeja'
p788
sg5
S'no run'
p789
sg7
S' Mills'
p790
sg9
S'\nslower ball at 116 kph as he gets the offcutter just outside off stump. Jaddu stays back to negotiate the shorter length and guides to point  </p>]'
p791
ssS'30.4'
p792
(dp793
g3
S'Dhoni'
p794
sg5
S'no run'
p795
sg7
S' Williamson'
p796
sg9
S'\nlength ball outside off and Dhoni leaves this  </p>]'
p797
ssS'42.6'
p798
(dp799
g3
S'Dhoni'
p800
sg5
S'1 run'
p801
sg7
S' Mills'
p802
sg9
S'\nfull and on the pads as he flicks it away to deep square leg for a single  </p>]'
p803
ssS'25.1'
p804
(dp805
g3
S'Sharma'
p806
sg5
S'1 run'
p807
sg7
S' Bennett'
p808
sg9
S"\nlength ball on the pads as he clips it down to deep square leg. He's finding those singles a lot easier now  </p>]"
p809
ssS'25.3'
p810
(dp811
g3
S'Rayudu'
p812
sg5
g530
sg7
S' Bennett'
p813
sg9
S"\nshort ball and guess what? And this rose nowhere near threatening enough. Rayudu's first movement was back and across and that made it all the more harder to pull this one comes just above waist-high. Gets a top-edge that settles safely in the keeper's gloves  </p>]"
p814
ssS'25.2'
p815
(dp816
g3
S'Rayudu'
p817
sg5
S'no run'
p818
sg7
S' Bennett'
p819
sg9
S'\nback of a length just outside off  Rayudu wants a single as he drops it at his feet with soft hands but Rohit was wary of the point fielder rushing in  </p>]'
p820
ssS'25.5'
p821
(dp822
g3
S'Sharma'
p823
sg5
S'1 run  </p>]'
p824
sg7
S' Bennett'
p825
sg9
S''
p826
ssS'25.4'
p827
(dp828
g3
S'Dhoni'
p829
sg5
S'1 run'
p830
sg7
S' Bennett'
p831
sg9
S'\nfullish and outside off  draws Dhoni forward and opens the face and guides it down to third man  </p>]'
p832
ssS'25.6'
p833
(dp834
g3
S'Dhoni'
p835
sg5
S'no run'
p836
sg7
S' Bennett'
p837
sg9
S'\nback of a length outside off  given safe passage to the keeper  </p>]'
p838
ssS'21.2'
p839
(dp840
g3
S'Sharma'
p841
sg5
g110
sg7
S' Neesham'
p842
sg9
S"\nthere's a shot befitting Rohit's skill. It was a bit too full from Neesham and that was possibly the only thing wrong with the ball  there wasn't much room to work with but he opens the face on impact and beats mid-off  </p>]"
p843
ssS'28.6'
p844
(dp845
g3
S'Sharma'
p846
sg5
S'1 run'
p847
sg7
S' NL McCullum'
p848
sg9
S'\novercorrects this time as Rohit is able to nudge it away into the leg side for a single  </p>]'
p849
ssS'23.6'
p850
(dp851
g3
S'Sharma'
p852
sg5
S'1 run'
p853
sg7
S' Neesham'
p854
sg9
S'\nthis time the angled bat takes the back of a length ball down and to the right of gully  </p>]'
p855
ssS'23.5'
p856
(dp857
g3
S'Sharma'
p858
sg5
g110
sg7
S' Neesham'
p859
sg9
S'\nuses the pace of Neesham as this was short and had just enough room for him to ramp the ball over the keeper. Got it well fine of third man  </p>]'
p860
ssS'23.4'
p861
(dp862
g3
S'Sharma'
p863
sg5
S'no run'
p864
sg7
S' Neesham'
p865
sg9
S'\nfullish and targeting the stumps as he keeps it out  </p>]'
p866
ssS'23.3'
p867
(dp868
g3
S'Sharma'
p869
sg5
g364
sg7
S' Neesham'
p870
sg9
S'\n<b>fifty</b> and what a shot to get it! Hoists it straight down the ground after charging down the track. Right into a bunch of orange shirts  who all miss it.  </p>]'
p871
ssS'23.2'
p872
(dp873
g3
S'Sharma'
p874
sg5
S'no run'
p875
sg7
S' Neesham'
p876
sg9
S'\nfullish and on and around off stump as he defends solidly  </p>]'
p877
ssS'23.1'
p878
(dp879
g3
S'Rayudu'
p880
sg5
S'1 run'
p881
sg7
S' Neesham'
p882
sg9
S'\nthick outside edge flies down to third man  it was never going to reach him but Devcich the substitute fielder rushes forward and gets his body in line to keep that to one  </p>]'
p883
ssS'32.1'
p884
(dp885
g3
S'Dhoni'
p886
sg5
S'no run'
p887
sg7
S' Williamson'
p888
sg9
S'\ndarted in on off stump as he pushes into the covers  </p>]'
p889
ssS'32.3'
p890
(dp891
g3
S'Sharma'
p892
sg5
g530
sg7
S' Williamson'
p893
sg9
S"\nhe's been caught down the leg side and Williamson strikes! He's had a few chances  but he's played some blistering shots in between and falls all too tamely. Length ball run almost off the face of the bat  but the keeper does well moving across to the leg side and parries it once before holding on. Quite safe from Ronchi  </p>]"
p894
ssS'32.2'
p895
(dp896
g3
S'Dhoni'
p897
sg5
S'1 run'
p898
sg7
S' Williamson'
p899
sg9
S'\nholds the length back and cramps him on the leg stump as he picks him off through square leg  </p>]'
p900
ssS'32.5'
p901
(dp902
g3
S'Ashwin'
p903
sg5
S'1 run'
p904
sg7
S' Williamson'
p905
sg9
S'\na bit too wide outside leg as he picks it off through square leg  </p>]'
p906
ssS'32.4'
p907
(dp908
g3
S'Ashwin'
p909
sg5
g110
sg7
S' Williamson'
p910
sg9
S'\nand he gets off the mark with a sublime stroke! Nicely tossed up outside off and he takes full toll. Leans forward and drives through the covers and the timing takes it all the way to the ropes  </p>]'
p911
ssS'32.6'
p912
(dp913
g3
S'Dhoni'
p914
sg5
g110
sg7
S' Williamson'
p915
sg9
S"\ntouch too short as Dhoni goes back and cuts behind point and finds the third man boundary. Perfect placement and India's counterattack continues  </p>]"
p916
ssS'33.4'
p917
(dp918
g3
S'Jadeja'
p919
sg5
S'no run'
p920
sg7
S' Southee'
p921
sg9
S'\nshort ball  rising above shoulder height on leg stump as he leaps off his feet and defends down by his legs  </p>]'
p922
ssS'19.4'
p923
(dp924
g3
S'Rayudu'
p925
sg5
S'no run'
p926
sg7
S' Neesham'
p927
sg9
S'\ncharges him  but Neesham slips in the short ball. A very well directed one too as it forces the batsman duck under it  lest he loses his head  </p>]'
p928
ssS'33.6'
p929
(dp930
g3
S'Jadeja'
p931
sg5
S'no run'
p932
sg7
S' Southee'
p933
sg9
S"\npursues the channel outside off again and Jadeja does not try that ugly waft he sometimes can't help himself with. Good on him  </p>]"
p934
ssS'33.1'
p935
(dp936
g3
S'Ashwin'
p937
sg5
g530
sg7
S' Southee'
p938
sg9
S"\nsaw a bit of width and he goes for a cut  but doesn't bother to keep it down and that is the end of him. Third man has to move to his left a bit and holds on to a reasonably easy catch and New Zealand take the edge as <b>drinks</b> come onto the field  </p>]"
p939
ssS'33.2'
p940
(dp941
g3
S'Jadeja'
p942
sg5
S'no run'
p943
sg7
S' Southee'
p944
sg9
S'\nfullish and angled across the left-hander  who is content to let it go to the keeper  </p>]'
p945
ssS'19.5'
p946
(dp947
g3
S'Rayudu'
p948
sg5
S'1 run'
p949
sg7
S' Neesham'
p950
sg9
S'\nfull and on the stumps as he clips it away to long leg  </p>]'
p951
ssS'19.6'
p952
(dp953
g3
S'Sharma'
p954
sg5
S'no run'
p955
sg7
S' Neesham'
p956
sg9
S'\ncame on a bit slower than Rohit expected. He was almost down with his hook shot when the bouncer comes to him and hits the bottom edge and deflects onto his pads  </p>]'
p957
ssS'29.529.529.529.529.529.529.529.529.529.5'
p958
(dp959
g3
S'Dhoni'
p960
sg5
g228
sg7
S' Bennett'
p961
sg9
S'\nbouncer  dug in a little too short as the Dhoni lets it through and lets the ump take over  </p>]'
p962
ssS'29.4'
p963
(dp964
g3
S'Dhoni'
p965
sg5
S'no run'
p966
sg7
S' Bennett'
p967
sg9
S'\nfull on off stump as he prefers to drive from the crease and generates his power with a flick of the wrists. Mid-off pulls out a full-length dive to his right and saves some runs  </p>]'
p968
ssS'39.6'
p969
(dp970
g3
S'Jadeja'
p971
sg5
S'no run'
p972
sg7
S' Bennett'
p973
sg9
S'\nback of a length  but the line is more tighter outside off as he opens the face and guides it to point  </p>]'
p974
ssS'39.4'
p975
(dp976
g3
S'Dhoni'
p977
sg5
S'1 run'
p978
sg7
S' Bennett'
p979
sg9
S"\nthat time he comes forward and runs with the stride as he drives to mid-off. The fielder had to move to his left a bit and Dhoni hadn't hit it too hard  </p>]"
p980
ssS'39.5'
p981
(dp982
g3
S'Jadeja'
p983
sg5
g110
sg7
S' Bennett'
p984
sg9
S'\nmagnificent shot! It was short and wide and needed to be put away and Jaddu is looking in top form as he goes back and slaps it through point. No stopping that  </p>]'
p985
ssS'39.2'
p986
(dp987
g3
S'Dhoni'
p988
sg5
S'no run'
p989
sg7
S' Bennett'
p990
sg9
S'\nkeeps at that line just outside off stump and Dhoni prefers to play off the back foot and he flick-drives into the covers  </p>]'
p991
ssS'39.3'
p992
(dp993
g3
S'Dhoni'
p994
sg5
S'no run'
p995
sg7
S' Bennett'
p996
sg9
S"\nfullish on off stump as Dhoni stays on the back foot. Dhoni's hands are too good on that occasion as he manages to push it to mid-off  </p>]"
p997
ssS'19.1'
p998
(dp999
g3
S'Sharma'
p1000
sg5
S'1 run'
p1001
sg7
S' Neesham'
p1002
sg9
S'\nback of a length on middle and leg as Rohit moves inside the line and works it away to long leg  </p>]'
p1003
ssS'8.1'
p1004
(dp1005
g3
S'Sharma'
p1006
sg5
S'1 run'
p1007
sg7
S' Mills'
p1008
sg9
S'\nback of a length and angled in on off stump. Rohit is off his feet and is quite cramped up but is able to sneak a single after pushing down towards mid-on  </p>]'
p1009
ssS'21.4'
p1010
(dp1011
g3
S'Rayudu'
p1012
sg5
S'no run'
p1013
sg7
S' Neesham'
p1014
sg9
S"\nlooks to whip the short ball from outside off stump towards midwicket  but can't get on top of it well enough though he was well on his toes  </p>]"
p1015
ssS'8.3'
p1016
(dp1017
g3
S'Rayudu'
p1018
sg5
S'1 run'
p1019
sg7
S' Mills'
p1020
sg9
S'\nshort again  this time Rayudu goes on the back foot and dabs it one-handed behind square leg for a single  </p>]'
p1021
ssS'8.2'
p1022
(dp1023
g3
S'Rahane'
p1024
sg5
g530
sg7
S' Mills'
p1025
sg9
S"\nshort delivery again and he's picked out long leg! Can't stop himself from going for the hook and he did not get on top of the bounce there. Gets a thick top edge that sails straight into the hands of Southee. Had to fetch that from a touch outside off  </p>]"
p1026
ssS'8.5'
p1027
(dp1028
g3
S'Sharma'
p1029
sg5
S'no run'
p1030
sg7
S' Mills'
p1031
sg9
S'\nfull and seeking top of off  Rohit strides forward to block  </p>]'
p1032
ssS'8.4'
p1033
(dp1034
g3
S'Sharma'
p1035
sg5
S'no run'
p1036
sg7
S' Mills'
p1037
sg9
S'\nback of a length and angled in on off stump as Rohit pushes from the crease with an opened face and finds point  </p>]'
p1038
ssS'21.3'
p1039
(dp1040
g3
S'Sharma'
p1041
sg5
S'1 run'
p1042
sg7
S' Neesham'
p1043
sg9
S'\nfullish and straying down the pads as he clips it away to backward square leg  </p>]'
p1044
ssS'8.6'
p1045
(dp1046
g3
S'Sharma'
p1047
sg5
S'no run'
p1048
sg7
S' Mills'
p1049
sg9
S'\nfullish and wide outside off  Rohit is circumspect as he leaves it for the keeper  </p>]'
p1050
ssS'19.3'
p1051
(dp1052
g3
S'Rayudu'
p1053
sg5
S'no run'
p1054
sg7
S' Neesham'
p1055
sg9
S"\nfullish on off stump as Rayudu comes forward to defend. They're giving nothing away here.  </p>]"
p1056
ssS'44.4'
p1057
(dp1058
g3
S'Jadeja'
p1059
sg5
S'no run'
p1060
sg7
S' Mills'
p1061
sg9
S'\nslower ball  on a length and just outside off as he dabs it square into the off side  </p>]'
p1062
ssS'42.5'
p1063
(dp1064
g3
S'Jadeja'
p1065
sg5
S'1 run'
p1066
sg7
S' Mills'
p1067
sg9
S'\nanother slower ball as Jaddu sees it and dabs it  from the crease  towards point for a single  </p>]'
p1068
ssS'30.3'
p1069
(dp1070
g3
S'Sharma'
p1071
sg5
S'1 run'
p1072
sg7
S' Williamson'
p1073
sg9
S'\nthis is tossed up outside off as he leans forward and drives to long-off  </p>]'
p1074
ssS'44.5'
p1075
(dp1076
g3
S'Jadeja'
p1077
sg5
S'no run'
p1078
sg7
S' Mills'
p1079
sg9
S'\nback of a length slower ball as he dabs it to short third man  good delivery that from Mills  </p>]'
p1080
ssS'9.4'
p1081
(dp1082
g3
S'Rayudu'
p1083
sg5
S'no run'
p1084
sg7
S' Bennett'
p1085
sg9
S'\n139 kph  terrific! thuds into the pitch and it jags off the seam a log way. Rayudu has to suck in his gut as he trusts the bounce and lets it through  </p>]'
p1086
ssS'9.5'
p1087
(dp1088
g3
S'Rayudu'
p1089
sg5
S'1 leg bye'
p1090
sg7
S' Bennett'
p1091
sg9
S"\nappreciable movement in at him again as Rayudu is beaten for pace. Didn't account for the indip there either as the ball clips the pads and runs away towards point  </p>]"
p1092
ssS'9.6'
p1093
(dp1094
g3
S'Sharma'
p1095
sg5
S'no run'
p1096
sg7
S' Bennett'
p1097
sg9
S'\nfullish and just outside off  leaves it well alone  </p>]'
p1098
ssS'9.1'
p1099
(dp1100
g3
S'Rayudu'
p1101
sg5
S'no run'
p1102
sg7
S' Bennett'
p1103
sg9
S'\nstarts off with a back of a length delivery outside off  hustles through at 130 kph as Rayudu lets it go  </p>]'
p1104
ssS'9.2'
p1105
(dp1106
g3
S'Rayudu'
p1107
sg5
S'no run'
p1108
sg7
S' Bennett'
p1109
sg9
S'\n136 kph  back of a length on and around off stump as he goes back and defends down the pitch  </p>]'
p1110
ssS'9.3'
p1111
(dp1112
g3
S'Rayudu'
p1113
sg5
g110
sg7
S' Bennett'
p1114
sg9
S'\nstrays on the pads and Rayudu clips it away through square leg for a much needed boundary. Bit too full from Bennett and against wristy players  that is asking for trouble  </p>]'
p1115
ssS'34.4'
p1116
(dp1117
g3
S'Jadeja'
p1118
sg5
S'2 runs'
p1119
sg7
S' NL McCullum'
p1120
sg9
S'\ndrifts down the pads and he clips it to long leg quite neatly for a couple that gets him off the mark  </p>]'
p1121
ssS'41.6'
p1122
(dp1123
g3
S'Jadeja'
p1124
sg5
g364
sg7
S' Bennett'
p1125
sg9
S"\nhe's launched that over mid-off's head! 200 up for India as Jaddu cuts loose. Another one that doesn't go too high off the ground  but it was struck so wonderfully well that it clears the ropes. It was begging for the shot though as Bennett overpitches outside off  </p>]"
p1126
ssS'41.5'
p1127
(dp1128
g3
S'Jadeja'
p1129
sg5
S'no run'
p1130
sg7
S' Bennett'
p1131
sg9
S'\nfullish on off stump as he pushes down to mid-off with a straight bat  </p>]'
p1132
ssS'41.4'
p1133
(dp1134
g3
S'Jadeja'
p1135
sg5
S'no run'
p1136
sg7
S' Bennett'
p1137
sg9
S'\nfuller and angled across the left-hander  who leans forward and opens the face to guide it to point  </p>]'
p1138
ssS'41.3'
p1139
(dp1140
g3
S'Jadeja'
p1141
sg5
g110
sg7
S' Bennett'
p1142
sg9
S'\nJaddu follows suit! This one rose a little higher and it was outside off stump too  but he has no hassles in pulling that well in front of square! Authoritative strike on a relatively slower pitch than Eden Park  </p>]'
p1143
ssS'41.2'
p1144
(dp1145
g3
S'Dhoni'
p1146
sg5
S'1 run'
p1147
sg7
S' Bennett'
p1148
sg9
S'\nstays well inside the line of this one as he cuts the length ball outside off to third man. More of a thickish outside edge than anything  </p>]'
p1149
ssS'30.1'
p1150
(dp1151
g3
S'Dhoni'
p1152
sg5
g364
sg7
S' Williamson'
p1153
sg9
S'\nbut this one will take a bit of time  I think. Dhoni has launched it straight out of the ground! Magnificently muscled as he charges down the pitch first ball and slogs him over midwicket  </p>]'
p1154
ssS'30.6'
p1155
(dp1156
g3
S'Dhoni'
p1157
sg5
S'1 run'
p1158
sg7
S' Williamson'
p1159
sg9
S'\ntossed up on and around leg stump as he turns it towards midwicket.  </p>]'
p1160
ssS'44.2'
p1161
(dp1162
g3
S'Jadeja'
p1163
sg5
g110
sg7
S' Mills'
p1164
sg9
S"\nfull toss on leg stump and it's picked away past short fine leg. Asking for trouble with this field and he gets it. I might be tempted to agree he really has got super powers  especially in the area of making bowlers bowl poor balls  </p>]"
p1165
ssS'43.5'
p1166
(dp1167
g3
S'Jadeja'
p1168
sg5
S'1 run'
p1169
sg7
S' Neesham'
p1170
sg9
S'\nshort ball outside off as he gets up on his toes and rides it towards point  </p>]'
p1171
ssS'28.1'
p1172
(dp1173
g3
S'Sharma'
p1174
sg5
S'1 run'
p1175
sg7
S' NL McCullum'
p1176
sg9
S'\nnice and full outside off as Rohit strides forward and drives to long-off  </p>]'
p1177
ssS'28.2'
p1178
(dp1179
g3
S'Dhoni'
p1180
sg5
S'no run'
p1181
sg7
S' NL McCullum'
p1182
sg9
S"\nchips down the track  but this one turns a touch. Dhoni wasn't accounting for that as he was playing outside the line and it takes his pad and goes to short fine  </p>]"
p1183
ssS'28.3'
p1184
(dp1185
g3
S'Dhoni'
p1186
sg5
S'1 run'
p1187
sg7
S' NL McCullum'
p1188
sg9
S'\nanother chip down to meet this one on the pitch and drives to long-on  </p>]'
p1189
ssS'28.4'
p1190
(dp1191
g3
S'Sharma'
p1192
sg5
S'no run'
p1193
sg7
S' NL McCullum'
p1194
sg9
S'\ntossed up on middle and off as he drives back to the bowler  </p>]'
p1195
ssS'28.5'
p1196
(dp1197
g3
S'Sharma'
p1198
sg5
g110
sg7
S' NL McCullum'
p1199
sg9
S'\nRohit  you beauty! That is just caressed over the covers for a one-bounce four. Sheer timing as he leans forward and lofts the flighted ball over the in-field.  </p>]'
p1200
ssS'7.3'
p1201
(dp1202
g3
S'Sharma'
p1203
sg5
S'no run'
p1204
sg7
S' Southee'
p1205
sg9
S'\npunches to point off the back foot as Southee refuses to give him too much room  </p>]'
p1206
ssS'15.5'
p1207
(dp1208
g3
S'Rayudu'
p1209
sg5
S'no run'
p1210
sg7
S' Neesham'
p1211
sg9
S"\nquite full again and Rayudu's front foot movement isn't quite as pronounced as it should have been. Driven to mid-on again  </p>]"
p1212
ssS'38.3'
p1213
(dp1214
g3
S'Dhoni'
p1215
sg5
S'no run'
p1216
sg7
S' NL McCullum'
p1217
sg9
S'\ntossed up on leg stump as Dhoni is contend blocking it to the right of the bowler  </p>]'
p1218
ssS'19.2'
p1219
(dp1220
g3
S'Rayudu'
p1221
sg5
S'no run'
p1222
sg7
S' Neesham'
p1223
sg9
S'\n138kph  shortish on and around middle as Rayudu is a little cramped for room as he manages to block  </p>]'
p1224
ssS'38.2'
p1225
(dp1226
g3
S'Jadeja'
p1227
sg5
S'1 run'
p1228
sg7
S' NL McCullum'
p1229
sg9
S'\nworks it away to deep square leg as he lunged forward to clip it to deep square leg  </p>]'
p1230
ssS'31.6'
p1231
(dp1232
g3
S'Sharma'
p1233
sg5
g110
sg7
S' Southee'
p1234
sg9
S'\nsees there is no slips in place and exploits that. Hint of room on this length ball and he dabs it to the right of the keeper for a very clever boundary  </p>]'
p1235
ssS'38.4'
p1236
(dp1237
g3
S'Dhoni'
p1238
sg5
S'no run'
p1239
sg7
S' NL McCullum'
p1240
sg9
S'\nflighted on leg as he goes forward and turns to midwicket  </p>]'
p1241
ssS'31.4'
p1242
(dp1243
g3
S'Sharma'
p1244
sg5
g364
sg7
S' Southee'
p1245
sg9
S"\nthere's his fourth so far and he slaps it over extra again. Moves leg side and this was in the slot for it. Back of a length ball outside off sent packing as he stands up high and flat-bats it away  </p>]"
p1246
ssS'31.5'
p1247
(dp1248
g3
S'Sharma'
p1249
sg5
S'no run'
p1250
sg7
S' Southee'
p1251
sg9
S'\nand that invites the bouncer over off stump and Rohit ducks out of the way  </p>]'
p1252
ssS'31.2'
p1253
(dp1254
g3
S'Dhoni'
p1255
sg5
S'1 run'
p1256
sg7
S' Southee'
p1257
sg9
S'\nshortish and angled in at his body as Dhoni works it away behind square leg for a single  </p>]'
p1258
ssS'31.3'
p1259
(dp1260
g3
S'Sharma'
p1261
sg5
S'no run'
p1262
sg7
S' Southee'
p1263
sg9
S"\nfullish on off stump and Rohit can't do much more than come forward and block. Took the bottom hand off and I think that bounced a little bit more than he expected  </p>]"
p1264
ssS'31.1'
p1265
(dp1266
g3
S'Dhoni'
p1267
sg5
S'no run'
p1268
sg7
S' Southee'
p1269
sg9
S'\nshortish and a little outside off stump  Dhoni was lining that up too  but checks his shot as he pushes into the covers.  </p>]'
p1270
ssS'18.1'
p1271
(dp1272
g3
S'Rayudu'
p1273
sg5
S'no run'
p1274
sg7
S' NL McCullum'
p1275
sg9
S'\nflighted outside off as he comes forward and defends  </p>]'
p1276
ssS'18.3'
p1277
(dp1278
g3
S'Sharma'
p1279
sg5
S'1 run'
p1280
sg7
S' NL McCullum'
p1281
sg9
S'\ntouch of turn from middle as Rohit comes forward and turns it towards short fine leg  </p>]'
p1282
ssS'18.2'
p1283
(dp1284
g3
S'Rayudu'
p1285
sg5
S'1 run'
p1286
sg7
S' NL McCullum'
p1287
sg9
S'\nnips down the track and drives the tossed up delivery on off stump to long-on. Neat stroke  </p>]'
p1288
ssS'18.5'
p1289
(dp1290
g3
S'Rayudu'
p1291
sg5
S'no run'
p1292
sg7
S' NL McCullum'
p1293
sg9
S'\nquick little dart on off stump as he pushes it to the right of the bowler  but N Mac is too good off his own bowling  </p>]'
p1294
ssS'18.4'
p1295
(dp1296
g3
S'Rayudu'
p1297
sg5
S'no run'
p1298
sg7
S' NL McCullum'
p1299
sg9
S'\nanother trip down the track for Rayudu  but this time his nudge finds midwicket  </p>]'
p1300
ssS'18.6'
p1301
(dp1302
g3
S'Rayudu'
p1303
sg5
S'no run'
p1304
sg7
S' NL McCullum'
p1305
sg9
S"\nand there's more evidence of it  pushed towards long-on but Nathan pulls out a sliding stop  </p>]"
p1306
ssS'1.4'
p1307
(dp1308
g3
S'Kohli'
p1309
sg5
S'no run'
p1310
sg7
S' Southee'
p1311
sg9
S'\nmore shape for Southee  and it was a nice  drivable length too. But he needs to be a bit straighter to make Kohli play.  </p>]'
p1312
ssS'1.5'
p1313
(dp1314
g3
S'Kohli'
p1315
sg5
S'1 run'
p1316
sg7
S' Southee'
p1317
sg9
S'\ngoes wide on the crease and Kohli had to reach out to this one. Very full outside off stump and he taps it away just to the left of mid-off  who pulls out the dive and keeps it to one  </p>]'
p1318
ssS'1.6'
p1319
(dp1320
g3
S'Sharma'
p1321
sg5
S'no run'
p1322
sg7
S' Southee'
p1323
sg9
S'\nventures forward as this is full and shaping away from off stump. Nice-looking drive to mid-off to end the over  </p>]'
p1324
ssS'1.1'
p1325
(dp1326
g3
S'Kohli'
p1327
sg5
S'no run'
p1328
sg7
S' Southee'
p1329
sg9
S"\nfullish and a bit wide outside off and Kohli doesn't bother with it. Touch of outswing for him straight away  </p>]"
p1330
ssS'1.2'
p1331
(dp1332
g3
S'Kohli'
p1333
sg5
S'no run'
p1334
sg7
S' Southee'
p1335
sg9
S'\nstrides forward to meet this full length ball on and around off stump with a push to mid-off  </p>]'
p1336
ssS'1.3'
p1337
(dp1338
g3
S'Kohli'
p1339
sg5
S'no run'
p1340
sg7
S' Southee'
p1341
sg9
S'\nlength ball on middle and Kohli is easily behind it  </p>]'
p1342
ssS'0.1'
p1343
(dp1344
g3
S'Sharma'
p1345
sg5
S'no run'
p1346
sg7
S' Mills'
p1347
sg9
S'\nright on the money  good length coupled with a probing line just outside off. Rohit is content not to play  </p>]'
p1348
ssS'30.2'
p1349
(dp1350
g3
S'Dhoni'
p1351
sg5
S'1 run'
p1352
sg7
S' Williamson'
p1353
sg9
S"\ndarted on off stump as he makes some room and cuts into the covers. Dhoni's legs are quick enough to pick up a very quick single  </p>]"
p1354
ssS'0.3'
p1355
(dp1356
g3
S'Sharma'
p1357
sg5
S'no run'
p1358
sg7
S' Mills'
p1359
sg9
S'\ntouch of swing away for Mills but it started a bit too wide outside off to trouble the batsman into playing  </p>]'
p1360
ssS'0.2'
p1361
(dp1362
g3
S'Sharma'
p1363
sg5
S'no run'
p1364
sg7
S' Mills'
p1365
sg9
S'\nfullish and quite straight as Rohit is made to come forward and defend  </p>]'
p1366
ssS'0.5'
p1367
(dp1368
g3
S'Sharma'
p1369
sg5
S'no run'
p1370
sg7
S' Mills'
p1371
sg9
S'\ngreat  big shout from Mills. But that very full delivery on middle and angled down leg would have missed the stumps. Rohit went for an almighty heave over the top to no avail  </p>]'
p1372
ssS'0.4'
p1373
(dp1374
g3
S'Sharma'
p1375
sg5
S'no run'
p1376
sg7
S' Mills'
p1377
sg9
S"\nteasing length just outside off  but Rohit refuses to bite. The only ball he's played this over was the one that threatened to take out his middle stump  </p>]"
p1378
ssS'30.5'
p1379
(dp1380
g3
S'Dhoni'
p1381
sg5
S'no run'
p1382
sg7
S' Williamson'
p1383
sg9
S'\ntouch short and just outside off as he goes back and makes some room  but cuts it straight to cover  </p>]'
p1384
ssS'0.6'
p1385
(dp1386
g3
S'Sharma'
p1387
sg5
S'no run'
p1388
sg7
S' Mills'
p1389
sg9
S'\nshortish and angled into the body of Rohit who rises to his toes and drops it down with soft hands  </p>]'
p1390
ssS'3.23.23.23.23.23.23.23.23.23.2'
p1391
(dp1392
g3
S'Kohli'
p1393
sg5
g228
sg7
S' Southee'
p1394
sg9
S'\nlength ball down the pads  strikes it and goes through to the keeper.  </p>]'
p1395
ssS'36.5'
p1396
(dp1397
g3
S'Dhoni'
p1398
sg5
S'1 run'
p1399
sg7
S' NL McCullum'
p1400
sg9
S'\ntouch short on the pads as he picks him off his hips to long leg  </p>]'
p1401
ssS'38.1'
p1402
(dp1403
g3
S'Jadeja'
p1404
sg5
S'no run'
p1405
sg7
S' NL McCullum'
p1406
sg9
S'\ntossed up on middle and off as he gets forward to defend  </p>]'
p1407
ssS'38.6'
p1408
(dp1409
g3
S'Jadeja'
p1410
sg5
S'no run'
p1411
sg7
S' NL McCullum'
p1412
sg9
S'\nexcellent line on off stump as he forces Jaddu to defend  </p>]'
p1413
ssS'38.5'
p1414
(dp1415
g3
S'Dhoni'
p1416
sg5
S'1 run'
p1417
sg7
S' NL McCullum'
p1418
sg9
S'\nlittle chip down the track as he presents a straight bat and finds long-on  </p>]'
p1419
ssS'36.4'
p1420
(dp1421
g3
S'Jadeja'
p1422
sg5
S'1 run'
p1423
sg7
S' NL McCullum'
p1424
sg9
S'\ngives it a little air while keeping the line nice and tight on the stumps. Jadeja pushes down the ground for a single  </p>]'
p1425
ssS'13.6'
p1426
(dp1427
g3
S'Rayudu'
p1428
sg5
S'no run'
p1429
sg7
S' Bennett'
p1430
sg9
S'\nshuffles across to his off stump as he defends this shortish ball down the pitch.  </p>]'
p1431
ssS'13.4'
p1432
(dp1433
g3
S'Rayudu'
p1434
sg5
S'no run'
p1435
sg7
S' Bennett'
p1436
sg9
S"\nand he does  and this one follows Rayudu too. Goes for the upper cut over third man but can't put bat to ball. Much better line of attack from the big fast bowler  </p>]"
p1437
ssS'13.5'
p1438
(dp1439
g3
S'Rayudu'
p1440
sg5
g110
sg7
S' Bennett'
p1441
sg9
S"\nanother short one  but this time Rayudu steps back inside the line of it and pulls it down to long leg. That's very clever batting  knows it will be dug in and he was waiting for it  </p>]"
p1442
ssS'13.2'
p1443
(dp1444
g3
S'Rayudu'
p1445
sg5
S'no run'
p1446
sg7
S' Bennett'
p1447
sg9
S'\nbit of width and Rayudu looks to capitalise as he goes back and cuts but he cannot beat a very acrobatic Jesse Ryder. Leapt to his left and stuck a hand out to stop the ball that was rather well timed  </p>]'
p1448
ssS'13.3'
p1449
(dp1450
g3
S'Rayudu'
p1451
sg5
g110
sg7
S' Bennett'
p1452
sg9
S'\nloose delivery on the pads and Rayudu clips it off the back foot through midwicket with considerable ease. He should go back to bowling much shorter than that  </p>]'
p1453
ssS'13.1'
p1454
(dp1455
g3
S'Rayudu'
p1456
sg5
S'no run'
p1457
sg7
S' Bennett'
p1458
sg9
S'\nkeeps pushing him back as this was short and around off stump. Rayudu nudges it towards midwicket  </p>]'
p1459
ssS'4.5'
p1460
(dp1461
g3
S'Sharma'
p1462
sg5
S'no run'
p1463
sg7
S' Mills'
p1464
sg9
S'\nanother one rising around hip-height to Rohit as he works it away towards square leg  who was a little too quick for India to sneak a single  </p>]'
p1465
ssS'4.4'
p1466
(dp1467
g3
S'Sharma'
p1468
sg5
S'no run'
p1469
sg7
S' Mills'
p1470
sg9
S'\nshortish and just outside off stump as he rides it down behind point  </p>]'
p1471
ssS'5.2'
p1472
(dp1473
g3
S'Sharma'
p1474
sg5
S'1 run'
p1475
sg7
S' Southee'
p1476
sg9
S"\nit's Rohit's turn to tuck it around the corner and scurry through for a quick single. Got forward to meet this full length ball on middle and leg  </p>]"
p1477
ssS'4.6'
p1478
(dp1479
g3
S'Sharma'
p1480
sg5
S'no run'
p1481
sg7
S' Mills'
p1482
sg9
S"\ncaught in no-man's land there. It was shortish and outside off stump and Rohit was stuck in the crease as he looked to put bat to ball. Looked very uncertain and it shows as the inside edge sneaks away to square leg  </p>]"
p1483
ssS'4.1'
p1484
(dp1485
g3
S'Sharma'
p1486
sg5
S'no run'
p1487
sg7
S' Mills'
p1488
sg9
S'\ninches forward to block the length ball on off stump  </p>]'
p1489
ssS'5.5'
p1490
(dp1491
g3
S'Sharma'
p1492
sg5
S'1 run'
p1493
sg7
S' Southee'
p1494
sg9
S'\nbit more bounce than Rohit expected  but he somehow managed to keep the guide to third man go down and to the left of a diving gully  </p>]'
p1495
ssS'4.3'
p1496
(dp1497
g3
S'Sharma'
p1498
sg5
S'no run'
p1499
sg7
S' Mills'
p1500
sg9
S'\nfuller length just outside off stump as he goes for an on-the-up drive to cover  </p>]'
p1501
ssS'4.2'
p1502
(dp1503
g3
S'Sharma'
p1504
sg5
S'no run'
p1505
sg7
S' Mills'
p1506
sg9
S'\ngoes wide of the crease that time for the shorter ball on off stump. Rohit goes up on his toes and dabs it into the leg side  </p>]'
p1507
ssS'11.4'
p1508
(dp1509
g3
S'Sharma'
p1510
sg5
S'no run'
p1511
sg7
S' Bennett'
p1512
sg9
S'\nchanges it up with one full and on off stump as he comes forward to block well  </p>]'
p1513
ssS'11.5'
p1514
(dp1515
g3
S'Sharma'
p1516
sg5
S'1 run'
p1517
sg7
S' Bennett'
p1518
sg9
S'\nfullish and angling down the leg side as he clips it away to deep square leg quite nicely  </p>]'
p1519
ssS'11.6'
p1520
(dp1521
g3
S'Rayudu'
p1522
sg5
S'1 run'
p1523
sg7
S' Bennett'
p1524
sg9
S'\nshort ball but Rayudu is already camping on his back foot and he softens the grip and nudges the ball behind square leg for a quick single  </p>]'
p1525
ssS'11.1'
p1526
(dp1527
g3
S'Sharma'
p1528
sg5
S'no run'
p1529
sg7
S' Bennett'
p1530
sg9
S'\nshortish and outside off stump  makes him hop up off his feet and blunt it down towards point  </p>]'
p1531
ssS'11.2'
p1532
(dp1533
g3
S'Sharma'
p1534
sg5
g364
sg7
S' Bennett'
p1535
sg9
S"\nhe has <i>slammed</i> that! Bennett's short ball rose only waist-high and Rohit is all to comfortable with that  pulling it off the front foot. Right off the middle!  </p>]"
p1536
ssS'11.3'
p1537
(dp1538
g3
S'Sharma'
p1539
sg5
S'no run'
p1540
sg7
S' Bennett'
p1541
sg9
S"\ngets this one to rise higher  and it's a bit more outside off as Rohit is up on his toes as he defends  </p>]"
p1542
ssS'17.2'
p1543
(dp1544
g3
S'Sharma'
p1545
sg5
S'no run'
p1546
sg7
S' Neesham'
p1547
sg9
S'\nleans right forward to block this full length ball on off stump.  </p>]'
p1548
ssS'17.3'
p1549
(dp1550
g3
S'Sharma'
p1551
sg5
g110
sg7
S' Neesham'
p1552
sg9
S'\nadvances down the track and goes for a mow over midwicket  but he gets a top-edge over the lone slip. One-bounce four down to third man  </p>]'
p1553
ssS'17.1'
p1554
(dp1555
g3
S'Rayudu'
p1556
sg5
S'1 run'
p1557
sg7
S' Neesham'
p1558
sg9
S"\nshort ball  but it was straying down leg. Rayudu swivel pulls to square leg for a single. Didn't make good enough contact  </p>]"
p1559
ssS'17.6'
p1560
(dp1561
g3
S'Sharma'
p1562
sg5
S'no run'
p1563
sg7
S' Neesham'
p1564
sg9
S'\ntouch of shape in at the batsman at 137 kph as Rohit comes forward and meets it with a dead bat  </p>]'
p1565
ssS'36.3'
p1566
(dp1567
g3
S'Dhoni'
p1568
sg5
S'1 run'
p1569
sg7
S' NL McCullum'
p1570
sg9
S'\nright up there in the block hole as Dhoni pushes it to long-on from the crease  </p>]'
p1571
ssS'17.4'
p1572
(dp1573
g3
S'Sharma'
p1574
sg5
S'no run'
p1575
sg7
S' Neesham'
p1576
sg9
S'\n140kph  fullish on and around off stump as he blocks off the front foot  </p>]'
p1577
ssS'17.5'
p1578
(dp1579
g3
S'Sharma'
p1580
sg5
S'no run'
p1581
sg7
S' Neesham'
p1582
sg9
S'\ntucks him up and Rohit can only nudge this length ball towards midwicket  </p>]'
p1583
ssS'47.1'
p1584
(dp1585
g3
S'Dhoni'
p1586
sg5
S'no run'
p1587
sg7
S' Bennett'
p1588
sg9
S"\ndigs it in shortish and the ball doesn't bounce as high as the batsman thought. Goes for the pull and he wanted to smoke it  but the ball sneaks under his bat and his middle stump was in considerable danger there  </p>]"
p1589
ssS'47.3'
p1590
(dp1591
g3
S'Jadeja'
p1592
sg5
g110
sg7
S' Bennett'
p1593
sg9
S"\nconsecutive fifties for Jaddu as he raises his bat and punches the air in triumph. Gets hold of this full toss outside off stump and chops it through the covers and finds the gap. Just concentrated on doing that  didn't hit the ball too hard  </p>]"
p1594
ssS'36.2'
p1595
(dp1596
g3
S'Jadeja'
p1597
sg5
S'1 run'
p1598
sg7
S' NL McCullum'
p1599
sg9
S'\nflighted on middle and leg as he reaches forward and drives down to long-on  </p>]'
p1600
ssS'47.5'
p1601
(dp1602
g3
S'Jadeja'
p1603
sg5
S'2 runs'
p1604
sg7
S' Bennett'
p1605
sg9
S'\nN Mac  you beauty! The bowler let himself down with another full toss outside off and this time Jaddu placed his front foot outside leg stump and drilled it down the ground. Long-off rushes across and dives full length to save two.  </p>]'
p1606
ssS'47.2'
p1607
(dp1608
g3
S'Dhoni'
p1609
sg5
g110
sg7
S' Bennett'
p1610
sg9
S"\nswings off his hips and gets the benefit of a top-edge which flies away over the keeper's head. Hint of width for Dhoni to take advantage of and though it didn't go where he wanted  he'll he content  </p>]"
p1611
ssS'47.6'
p1612
(dp1613
g3
S'Jadeja'
p1614
sg5
g110
sg7
S' Bennett'
p1615
sg9
S"\nnope  isn't as lucky second time around. Full toss outside off again  only difference was Jaddu slapped this way more harder  </p>]"
p1616
ssS'46.4'
p1617
(dp1618
g3
S'Jadeja'
p1619
sg5
S'1 run'
p1620
sg7
S' Mills'
p1621
sg9
S'\nlow full toss outside off stump as he plonks his front foot forward and drives to long-off  </p>]'
p1622
ssS'46.5'
p1623
(dp1624
g3
S'Dhoni'
p1625
sg5
S'no run'
p1626
sg7
S' Mills'
p1627
sg9
S"\nback of a length and pushed across him. Dhoni looks to flick-drive it through the covers  but just can't connect. Lots of wrist in that shot  </p>]"
p1628
ssS'46.6'
p1629
(dp1630
g3
S'Dhoni'
p1631
sg5
S'1 run'
p1632
sg7
S' Mills'
p1633
sg9
S'\nback of a length on and around off stump as he goes deep in his crease and runs it to deep third man. Good over for NZ  only five off it  </p>]'
p1634
ssS'46.1'
p1635
(dp1636
g3
S'Dhoni'
p1637
sg5
S'1 run'
p1638
sg7
S' Mills'
p1639
sg9
S'\ncharges down the track and flays the full ball on leg stump to long-on as Mills continues around the wicket.  </p>]'
p1640
ssS'46.2'
p1641
(dp1642
g3
S'Jadeja'
p1643
sg5
S'1 run'
p1644
sg7
S' Mills'
p1645
sg9
S'\nback over to the left-hander as this is full and outside off. Driven to long-off quite strongly  </p>]'
p1646
ssS'5.1'
p1647
(dp1648
g3
S'Rahane'
p1649
sg5
S'1 run'
p1650
sg7
S' Southee'
p1651
sg9
S'\nfull and angled into his pads as Rahane nudges it to long leg and rotates strike. India need a lot of that right now  </p>]'
p1652
ssS'5.3'
p1653
(dp1654
g3
S'Rahane'
p1655
sg5
S'1 run'
p1656
sg7
S' Southee'
p1657
sg9
S"\nlength ball angled in at him as Rahane doesn't need to do much  just flicks it off his pads to long leg off the back foot  </p>]"
p1658
ssS'41.1'
p1659
(dp1660
g3
S'Dhoni'
p1661
sg5
g110
sg7
S' Bennett'
p1662
sg9
S"\nstarts off with a short ball  but he doesn't get it to rise high enough. Dhoni was camped on the back foot and slams it wide of mid-on. Punishing stroke from the India captain  </p>]"
p1663
ssS'29.5'
p1664
(dp1665
g3
S'Dhoni'
p1666
sg5
S'1 run'
p1667
sg7
S' Bennett'
p1668
sg9
S'\nback of a length on and around off stump as he shuffles across and clips it to deep midwicket  </p>]'
p1669
ssS'5.4'
p1670
(dp1671
g3
S'Sharma'
p1672
sg5
S'no run'
p1673
sg7
S' Southee'
p1674
sg9
S"\nshort ball at 135 kph  good line too  right on top of middle. But Rohit's seen it early and sinks below it  </p>]"
p1675
ssS'29.6'
p1676
(dp1677
g3
S'Sharma'
p1678
sg5
S'no run'
p1679
sg7
S' Bennett'
p1680
sg9
S'\nfull face of the bat sends the ball rolling all along the ground to mid-on. Full length on middle stump from Bennett  </p>]'
p1681
ssS'29.1'
p1682
(dp1683
g3
S'Sharma'
p1684
sg5
S'1 run'
p1685
sg7
S' Bennett'
p1686
sg9
S'\nlength ball just outside off as he opens the face and runs it down to third man  </p>]'
p1687
ssS'29.3'
p1688
(dp1689
g3
S'Dhoni'
p1690
sg5
S'no run'
p1691
sg7
S' Bennett'
p1692
sg9
S'\nback of a length just outside off as he shuffles in line and pushes it mid-off  </p>]'
p1693
ssS'29.2'
p1694
(dp1695
g3
S'Dhoni'
p1696
sg5
S'no run'
p1697
sg7
S' Bennett'
p1698
sg9
S'\nhe has cracked that  but he picked out the wrong fielder to hit to. Short and wide outside off and Dhoni cut it with all his might. But the ball was headed straight to Guptill in the covers  </p>]'
p1699
ssS'15.1'
p1700
(dp1701
g3
S'Sharma'
p1702
sg5
S'no run'
p1703
sg7
S' Neesham'
p1704
sg9
S'\nand its short of a length on middle and leg as Rohit goes back and blocks it towards midwicket  </p>]'
p1705
ssS'15.2'
p1706
(dp1707
g3
S'Sharma'
p1708
sg5
S'no run'
p1709
sg7
S' Neesham'
p1710
sg9
S'\nlength ball outside off  not bothered with  </p>]'
p1711
ssS'15.3'
p1712
(dp1713
g3
S'Sharma'
p1714
sg5
S'1 run'
p1715
sg7
S' Neesham'
p1716
sg9
S'\nventures straighter does Neesham and the batsman tucks it down to long leg for a single.  </p>]'
p1717
ssS'15.4'
p1718
(dp1719
g3
S'Rayudu'
p1720
sg5
S'no run'
p1721
sg7
S' Neesham'
p1722
sg9
S'\nfullish on middle as he pushes down to mid-on off the front foot  </p>]'
p1723
ssS'5.6'
p1724
(dp1725
g3
S'Rahane'
p1726
sg5
S'no run'
p1727
sg7
S' Southee'
p1728
sg9
S'\nchops it to cover as this is shortish and just outside off  </p>]'
p1729
ssS'15.6'
p1730
(dp1731
g3
S'Rayudu'
p1732
sg5
S'no run'
p1733
sg7
S' Neesham'
p1734
sg9
S'\nthis time he takes a couple of steps down the pitch  but the ball jags in off the pitch and does not afford any room. Just manages to keep it out and on that note  it will be <b>drinks</b> </p>]'
p1735
ssS'44.3'
p1736
(dp1737
g3
S'Jadeja'
p1738
sg5
S'no run'
p1739
sg7
S' Mills'
p1740
sg9
S'\nfull on middle and leg as he clips it to midwicket quite solidly  </p>]'
p1741
ssS'49.4'
p1742
(dp1743
g3
S'Jadeja'
p1744
sg5
S'2 leg byes'
p1745
sg7
S' Neesham'
p1746
sg9
S"\nthere should not have been any runs there at all but India pick up two! Fuller length ball down the leg side and it clips the pad on the way to the keeper. Dhoni was rushing across to the other and and Jaddu responded so late. The keeper underarms it to the bowler and Jaddu was almost resigned to being run out when Neesh misses the stumps at the bowler's end. He could have waked over to it and clipped the bails off  but the underarm throw misses  </p>]"
p1747
ssS'48.2'
p1748
(dp1749
g3
S'Jadeja'
p1750
sg5
S'1 run'
p1751
sg7
S' Mills'
p1752
sg9
S'\nmoves outside leg as he caresses this low full toss through towards the cover fielder  </p>]'
p1753
ssS'48.3'
p1754
(dp1755
g3
S'Dhoni'
p1756
sg5
g110
sg7
S' Mills'
p1757
sg9
S"\nshort ball  absolutely no danger as this doesn't even rise to waist high. Ample time to get under it and slap it over cow-corner off the back foot  </p>]"
p1758
ssS'48.1'
p1759
(dp1760
g3
S'Dhoni'
p1761
sg5
S'1 run'
p1762
sg7
S' Mills'
p1763
sg9
S'\nfull and down the leg side as he gets forward and swings the length ball past short fine leg  but Ross Taylor at deep backward square mops up  </p>]'
p1764
ssS'48.6'
p1765
(dp1766
g3
S'Jadeja'
p1767
sg5
S'1 run'
p1768
sg7
S' Mills'
p1769
sg9
S'\noutstanding slower ball at 100 kph as Jaddu was looking to line this up  but the length was too full and it had absolutely no room on it. Has to settle for a guide into the covers with an open face  </p>]'
p1770
ssS'48.4'
p1771
(dp1772
g3
S'Dhoni'
p1773
sg5
S'no run'
p1774
sg7
S' Mills'
p1775
sg9
S'\nfull and pushed across him as Dhoni moves outside off stump and looks to be a bit too cheeky. Looks to scoop it over dine leg and ends up missing the ball  </p>]'
p1776
ssS'48.5'
p1777
(dp1778
g3
S'Dhoni'
p1779
sg5
S'1 run'
p1780
sg7
S' Mills'
p1781
sg9
S'\ncharges down the track and ensures he has a bit of room to work with  but Mills bowls it wide outside off and limits Dhoni to a single as he chops his bat down on it and hits through the covers  </p>]'
p1782
ssS'45.345.345.345.345.345.345.345.345.345.3'
p1783
(dp1784
g3
S'Jadeja'
p1785
sg5
g228
sg7
S' Neesham'
p1786
sg9
S'\nslower ball from around the wicket  but his radar slips as it goes down leg and is called on it  </p>]'
p1787
ssS'47.4'
p1788
(dp1789
g3
S'Jadeja'
p1790
sg5
S'no run'
p1791
sg7
S' Bennett'
p1792
sg9
S'\nthis time he gets the wide yorker right. Jaddu looks to get a little bat on it to third man  but misses  </p>]'
p1793
ss.