(dp0
S'33.5'
p1
(dp2
S'to'
p3
S'Williamson'
p4
sS'what'
p5
S'no run'
p6
sS'from'
p7
S' Kohli'
p8
sS'why'
p9
S"\nchopped to point and he doesn't time it properly as this goes off the bottom of the bat to point  </p>]"
p10
ssS'35.2'
p11
(dp12
g3
S'Taylor'
p13
sg5
S'no run'
p14
sg7
S' Mohammed Shami'
p15
sg9
S"\n136 kph  bit if width outside off as this is on a length. Taylor chops it away to point. Normally in this series he's beaten that man  </p>]"
p16
ssS'35.3'
p17
(dp18
g3
S'Taylor'
p19
sg5
S'1 run'
p20
sg7
S' Mohammed Shami'
p21
sg9
S'\n131 kph  full on middle as he works it down the ground to long-on  </p>]'
p22
ssS'35.1'
p23
(dp24
g3
S'Williamson'
p25
sg5
S'1 run'
p26
sg7
S' Mohammed Shami'
p27
sg9
S'\nfull on off stump as he presses forward and drives back down the ground. The ball ricochets off the bowler for a single to mid-on  </p>]'
p28
ssS'35.6'
p29
(dp30
g3
S'Taylor'
p31
sg5
S'1 run'
p32
sg7
S' Mohammed Shami'
p33
sg9
S'\nopens the face as he finds point again as this is on a length around off stump  </p>]'
p34
ssS'35.4'
p35
(dp36
g3
S'Williamson'
p37
sg5
S'6 run'
p38
sg7
S' Mohammed Shami'
p39
sg9
S"\nmagic! Plonks his front foot forward as he picked up the slower ball and lofted him straight over long-off. Just an extension of defence and it's been perfectly timed. There's an man in the orange shirt who gets a hand to it but can't hold on. 100 grand drop  </p>]"
p40
ssS'35.5'
p41
(dp42
g3
S'Williamson'
p43
sg5
S'1 run'
p44
sg7
S' Mohammed Shami'
p45
sg9
S'\ndabs it into the point region as this is shortish and on and around off stump  </p>]'
p46
ssS'7.2'
p47
(dp48
g3
S'Ryder'
p49
sg5
S'4 run'
p50
sg7
S' Kumar'
p51
sg9
S"\n132 kph  back around the wicket as this is on a length and Ryder goes for it. It's a typical slog and he doesn't connect properly. Plonked his front foot forward and heaved it over mid-on  </p>]"
p52
ssS'6.6'
p53
(dp54
g3
S'Ryder'
p55
sg5
S'no run'
p56
sg7
S' Mohammed Shami'
p57
sg9
S"\n135kph  punched into the covers as he angles this across Ryder. Meets the back of a length ball on the front foot and strikes it quite crisply  but can't beat cover  </p>]"
p58
ssS'12.1'
p59
(dp60
g3
S'Guptill'
p61
sg5
S'2 runs'
p62
sg7
S' Aaron'
p63
sg9
S"\nthis one he's got hold of. Stands up tall and slaps it through extra cover as this is short and outside off. Solid straight bat comes down on the ball as he hits through the line  </p>]"
p64
ssS'7.1'
p65
(dp66
g3
S'Guptill'
p67
sg5
S'1 run'
p68
sg7
S' Kumar'
p69
sg9
S'\nfull and it seams away just a touch  Guptill is forward and blocks into extra cover and they pick up a very well judged single. Played with softer hands that time  </p>]'
p70
ssS'6.3'
p71
(dp72
g3
S'Ryder'
p73
sg5
S'no run'
p74
sg7
S' Mohammed Shami'
p75
sg9
S'\nmild appeal as this strikes Ryder just above the pads as he was jumping up and looking to flick it away. Think it pitched outside leg  but either way it was definitely too high. Ryder must have been struck hard as he sinks on his honches at square leg  </p>]'
p76
ssS'12.6'
p77
(dp78
g3
S'Taylor'
p79
sg5
S'no run'
p80
sg7
S' Aaron'
p81
sg9
S'\n143 kph  spears it in on middle and this seemed pretty adjacent as Aaron goes up in appeal  only Taylor gets a timely inside edge to it as he came forward to drive to mid-on  </p>]'
p82
ssS'6.1'
p83
(dp84
g3
S'Ryder'
p85
sg5
S'no run'
p86
sg7
S' Mohammed Shami'
p87
sg9
S'\nfull on off stump as he inches forward and pushes to mid-off with a straight bat  </p>]'
p88
ssS'12.4'
p89
(dp90
g3
S'Taylor'
p91
sg5
S'no run'
p92
sg7
S' Aaron'
p93
sg9
S'\nfullish on the stumps as he blocks nicely with a straight bat  </p>]'
p94
ssS'37.1'
p95
(dp96
g3
S'Williamson'
p97
sg5
S'1 run'
p98
sg7
S' Aaron'
p99
sg9
S'\nback of a length just outside off as Williamson lets it come on and dabs to deep third man  </p>]'
p100
ssS'37.2'
p101
(dp102
g3
S'Taylor'
p103
sg5
S'1 run'
p104
sg7
S' Aaron'
p105
sg9
S'\nwhipped away to deep square leg. Very strong wristwork as this was a length ball that tails into him  </p>]'
p106
ssS'37.3'
p107
(dp108
g3
S'Williamson'
p109
sg5
S'OUT'
p110
sg7
S' Aaron'
p111
sg9
S"\nhe won't get his hundred. Fullish delivery outside off as he goes for the front foot slice over point  but Rahane jumps up and picks up a smart catch. He's been playing that shot over extra all this time  could have gone for that option again instead of trying to hit square. Nonetheless  he's set New Zealand up for a mighty good score again  </p>]"
p112
ssS'37.4'
p113
(dp114
g3
S'McCullum'
p115
sg5
S'1 run'
p116
sg7
S' Aaron'
p117
sg9
S'\nback of a length on middle and leg as he nudges it in front of square leg  </p>]'
p118
ssS'37.5'
p119
(dp120
g3
S'Taylor'
p121
sg5
S'1 run'
p122
sg7
S' Aaron'
p123
sg9
S'\njust a bit too much room on offer as he gets a thickish edge to deep third man  </p>]'
p124
ssS'37.6'
p125
(dp126
g3
S'McCullum'
p127
sg5
S'no run'
p128
sg7
S' Aaron'
p129
sg9
S'\n143kph  back of a length on off stump even as he comes forward and opens the face to nudge into the covers  </p>]'
p130
ssS'10.1'
p131
(dp132
g3
S'Williamson'
p133
sg5
S'no run'
p134
sg7
S' Aaron'
p135
sg9
S'\nfull and tails away just a touch at 138 kph. Williamson is nicely behind it as he blocks back to the bowler  </p>]'
p136
ssS'10.3'
p137
(dp138
g3
S'Williamson'
p139
sg5
S'no run'
p140
sg7
S' Aaron'
p141
sg9
S"\n138kph  full and probes on the fifth stump line as Williamson watches the ball all the way through to the keeper's gloves as he leaves  </p>]"
p142
ssS'10.2'
p143
(dp144
g3
S'Williamson'
p145
sg5
S'no run'
p146
sg7
S' Aaron'
p147
sg9
S'\nback of a length on off stump as Williamson is balanced on his back foot and defends  </p>]'
p148
ssS'10.5'
p149
(dp150
g3
S'Williamson'
p151
sg5
S'2 runs'
p152
sg7
S' Aaron'
p153
sg9
S'\ngoes short and angles it a bit too far down the leg side as Williamson rocks back and hooks down to fine leg. Excellent roll of the wrists and they pick up two  </p>]'
p154
ssS'10.4'
p155
(dp156
g3
S'Williamson'
p157
sg5
S'no run'
p158
sg7
S' Aaron'
p159
sg9
S'\nlovely straight drive from Williamson  gets forward and brings the full face down on this full dellivery on off stump  </p>]'
p160
ssS'10.6'
p161
(dp162
g3
S'Williamson'
p163
sg5
S'no run'
p164
sg7
S' Aaron'
p165
sg9
S"\ndabs it into the point region with soft hands and looks for the single  but it isn't there. Ends the over with a back of a length delivery outside off  </p>]"
p166
ssS'43.1'
p167
(dp168
g3
S'Taylor'
p169
sg5
g38
sg7
S' Kohli'
p170
sg9
S"\nslog sweep over midwicket and he has got all of this. The first six for Taylor in this series and it's the old faithful. Overpitched outside off and he creams it after going down on one knee  </p>]"
p171
ssS'33.3'
p172
(dp173
g3
S'Williamson'
p174
sg5
S'1 run'
p175
sg7
S' Kohli'
p176
sg9
S'\nbit more width outside off as he moves forward and flays it through the covers  </p>]'
p177
ssS'44.6'
p178
(dp179
g3
S'Neesham'
p180
sg5
g50
sg7
S' Aaron'
p181
sg9
S'\n145kph  pulls over midwicket! Think he was waiting for that as Aaron goes for the short ball  but this has some room for Neesham to swing his arms and swing he does.  </p>]'
p182
ssS'16.6'
p183
(dp184
g3
S'Taylor'
p185
sg5
S'no run'
p186
sg7
S' Aaron'
p187
sg9
S'\n150kph  fullish on off stump as Taylor moves forward and opens the face to find point. Phew  some serious pace from Aaron. But he does stray a touch  </p>]'
p188
ssS'16.5'
p189
(dp190
g3
S'Williamson'
p191
sg5
S'1 run'
p192
sg7
S' Aaron'
p193
sg9
S'\n146 kph  rises up on his toes to guides this short ball outside off down to third man. No more slip now  </p>]'
p194
ssS'16.4'
p195
(dp196
g3
S'Taylor'
p197
sg5
S'1 run'
p198
sg7
S' Aaron'
p199
sg9
S'\ntightens his line  but strays into the pads because of that. Taylor works it away to long leg  </p>]'
p200
ssS'16.3'
p201
(dp202
g3
S'Taylor'
p203
sg5
g50
sg7
S' Aaron'
p204
sg9
S'\n145kph  this time through extra cover! A bit too full and Taylor goes forward and hits through the line. Right off the middle and the fielder gives it up pretty quickly. That was too well timed  </p>]'
p205
ssS'16.2'
p206
(dp207
g3
S'Taylor'
p208
sg5
S'no run'
p209
sg7
S' Aaron'
p210
sg9
S'\nfull on middle and it shapes away but Taylor is behind it and defends down the pitch.  </p>]'
p211
ssS'16.1'
p212
(dp213
g3
S'Williamson'
p214
sg5
S'1 run'
p215
sg7
S' Aaron'
p216
sg9
S'\nback of a length and just outside off as Williamson lets it come on and dabs it past the lone fly slip position  </p>]'
p217
ssS'44.1'
p218
(dp219
g3
S'Taylor'
p220
sg5
S'1 run'
p221
sg7
S' Aaron'
p222
sg9
S'\n140kph  fullsh and just outside off as Taylor moves across and drives to long-on  </p>]'
p223
ssS'43.2'
p224
(dp225
g3
S'Taylor'
p226
sg5
g50
sg7
S' Kohli'
p227
sg9
S'\nthis time its a full toss outside off and Taylor moves across to the off side and sweeps it all along the ground through square leg  </p>]'
p228
ssS'43.4'
p229
(dp230
g3
S'McCullum'
p231
sg5
S'2 runs'
p232
sg7
S' Kohli'
p233
sg9
S'\nshort and wide outside off as Baz rocks back and cuts through the covers. The man in the deep has a lot of work to do as this was timed quite well.  </p>]'
p234
ssS'14.4'
p235
(dp236
g3
S'Taylor'
p237
sg5
S'no run'
p238
sg7
S' Aaron'
p239
sg9
S'\nfullish and targeting top of off as Taylor defends from the crease  </p>]'
p240
ssS'45.3'
p241
(dp242
g3
S'Neesham'
p243
sg5
S'1 run'
p244
sg7
S' Mohammed Shami'
p245
sg9
S'\n137kph  keeps to a full length on middle and off as Neesham brings down a straight bat. Timed it well enough to ensure the bowler misfields as he sticks out a hand  </p>]'
p246
ssS'45.2'
p247
(dp248
g3
S'Taylor'
p249
sg5
S'1 run'
p250
sg7
S' Mohammed Shami'
p251
sg9
S'\n137kph  nice and full on middle again as Taylor is forward and drives to long-on  </p>]'
p252
ssS'45.1'
p253
(dp254
g3
S'Taylor'
p255
sg5
S'no run'
p256
sg7
S' Mohammed Shami'
p257
sg9
S'\n136 kph  yorker on off stump as he manages to dig it out  </p>]'
p258
ssS'45.6'
p259
(dp260
g3
S'Taylor'
p261
sg5
S'1 run'
p262
sg7
S' Mohammed Shami'
p263
sg9
S"\n137 kph  overpitched this time and it had a little bit of room too. Taylor goes for the cover drive but he can't beat the infield. Has to settle for a single  </p>]"
p264
ssS'45.5'
p265
(dp266
g3
S'Taylor'
p267
sg5
S'no run'
p268
sg7
S' Mohammed Shami'
p269
sg9
S'\nanother yorker from Shami  this one on middle and off as he keeps Taylor to a defensive push down the pitch  </p>]'
p270
ssS'45.4'
p271
(dp272
g3
S'Taylor'
p273
sg5
S'2 runs'
p274
sg7
S' Mohammed Shami'
p275
sg9
S"\nneat little couple as Taylor nudges this very full length delivery on middle down to long-on. Very good awareness of the field and how hard he's hit it  </p>]"
p276
ssS'26.6'
p277
(dp278
g3
S'Williamson'
p279
sg5
S'no run'
p280
sg7
S' Jadeja'
p281
sg9
S'\ntossed up outside off as he moves across to try and sweep. Struck on the top flap as Jadeja appeals  but he was outside the line  </p>]'
p282
ssS'23.5'
p283
(dp284
g3
S'Williamson'
p285
sg5
S'2 runs'
p286
sg7
S' Ashwin'
p287
sg9
S'\nchips down the track and this time he hits Ashwin straight over his head  </p>]'
p288
ssS'26.4'
p289
(dp290
g3
S'Taylor'
p291
sg5
S'3 runs'
p292
sg7
S' Jadeja'
p293
sg9
S'\ntoo straight  even if it is full. Taylor glances it fine to pick up three  </p>]'
p294
ssS'26.5'
p295
(dp296
g3
S'Williamson'
p297
sg5
S'no run'
p298
sg7
S' Jadeja'
p299
sg9
S'\ngood length just outside off as Williamson is on the back foot and dabs to backward point  </p>]'
p300
ssS'26.2'
p301
(dp302
g3
S'Williamson'
p303
sg5
S'no run'
p304
sg7
S' Jadeja'
p305
sg9
S'\ntouch short as he moves outside leg and cuts towards point  </p>]'
p306
ssS'26.3'
p307
(dp308
g3
S'Williamson'
p309
sg5
S'1 run'
p310
sg7
S' Jadeja'
p311
sg9
S'\nnudged towards deep midwicket as this is full on leg  </p>]'
p312
ssS'26.1'
p313
(dp314
g3
S'Williamson'
p315
sg5
S'no run'
p316
sg7
S' Jadeja'
p317
sg9
S'\nfullish on off stump as he defends down the ground  </p>]'
p318
ssS'14.5'
p319
(dp320
g3
S'Taylor'
p321
sg5
S'no run'
p322
sg7
S' Aaron'
p323
sg9
S'\nfull and just outside off as Taylor presses forward and squirts it off an open face to the covers  </p>]'
p324
ssS'12.3'
p325
(dp326
g3
S'Taylor'
p327
sg5
S'no run'
p328
sg7
S' Aaron'
p329
sg9
S'\nshort ball to start off and this is at 143 kph. Outside off though so he lets it go  </p>]'
p330
ssS'14.6'
p331
(dp332
g3
S'Taylor'
p333
sg5
g50
sg7
S' Aaron'
p334
sg9
S'\n145 kph  absolutely perfect from Taylor. Too full and he moves confidently forward and flays it through the covers. Races away  </p>]'
p335
ssS'14.1'
p336
(dp337
g3
S'Taylor'
p338
sg5
g50
sg7
S' Aaron'
p339
sg9
S"\nmagnificent. Just a bit of width outside off and Taylor's off side play is too good. Strides forward and drives in front of point and it rolls away  </p>]"
p340
ssS'14.3'
p341
(dp342
g3
S'Williamson'
p343
sg5
S'1 run'
p344
sg7
S' Aaron'
p345
sg9
S'\nshort with some width outside off as Williamson cuts over point. Almost carried through to the deep third man  </p>]'
p346
ssS'12.2'
p347
(dp348
g3
S'Guptill'
p349
sg5
g110
sg7
S' Aaron'
p350
sg9
S"\nthis time it's taken at mid-on! Shami gets his buckets under it  well just about. It was on a good length on middle and off and he was looking to clip it through midwicket. But he had played the shot too early and looked to check his shot. Gets a leading edge which lobs to the man at mid-on who runs forward and holds it in his fingertips  </p>]"
p351
ssS'24.4'
p352
(dp353
g3
S'Taylor'
p354
sg5
S'3 runs'
p355
sg7
S' Jadeja'
p356
sg9
S'\nfires it down the pads as Taylor moves across to the off side and tickles it fine. They hustle through for three runs  taking one of them off the throw  </p>]'
p357
ssS'24.5'
p358
(dp359
g3
S'Williamson'
p360
sg5
S'no run'
p361
sg7
S' Jadeja'
p362
sg9
S'\nflighted on middle as he goes back and pushes down the ground. Jadeja runs to his right and dives to keep that to none  </p>]'
p363
ssS'24.6'
p364
(dp365
g3
S'Williamson'
p366
sg5
S'1 run'
p367
sg7
S' Jadeja'
p368
sg9
S'\nadvances down the track as he gets to the pitch and drives to long-off  </p>]'
p369
ssS'14.2'
p370
(dp371
g3
S'Taylor'
p372
sg5
S'3 runs'
p373
sg7
S' Aaron'
p374
sg9
S"\nfull on off stump and he drives through the line. Just pushed it down the ground with a straight bat and makes sure it beat's Aaron's dive to the right. Neat strike  wasn't looking to hit it too hard at all  </p>]"
p375
ssS'6.5'
p376
(dp377
g3
S'Ryder'
p378
sg5
S'no run'
p379
sg7
S' Mohammed Shami'
p380
sg9
S'\n141 kph  back of a length and keeps it tight on middle and Ryder can only nudge it down to mid-on  </p>]'
p381
ssS'24.2'
p382
(dp383
g3
S'Taylor'
p384
sg5
S'no run'
p385
sg7
S' Jadeja'
p386
sg9
S'\nfull on off stump as he defends towards mid-on  </p>]'
p387
ssS'24.3'
p388
(dp389
g3
S'Taylor'
p390
sg5
S'2 runs'
p391
sg7
S' Jadeja'
p392
sg9
S"\nwas in position for the sweep quite early and though Jadeja speared it outside off stump  he's able to beat short fine  </p>]"
p393
ssS'22.2'
p394
(dp395
g3
S'Taylor'
p396
sg5
S'1 run  </p>]'
p397
sg7
S' Jadeja'
p398
sg9
S''
p399
ssS'22.3'
p400
(dp401
g3
S'Williamson'
p402
sg5
S'no run'
p403
sg7
S' Jadeja'
p404
sg9
S'\nfull and flat on off stump as Williamson pushes to mid-off  </p>]'
p405
ssS'49.5'
p406
(dp407
g3
S'Ronchi'
p408
sg5
S'1 run'
p409
sg7
S' Mohammed Shami'
p410
sg9
S'\nyorker on off stump as he takes his front leg out of the way to drive down the ground. Only manages an inside edge  </p>]'
p411
ssS'6.4'
p412
(dp413
g3
S'Ryder'
p414
sg5
S'no run'
p415
sg7
S' Mohammed Shami'
p416
sg9
S'\nshort of a good length  just outside off as he opens the face off the back foot to point  </p>]'
p417
ssS'22.6'
p418
(dp419
g3
S'Taylor'
p420
sg5
S'no run'
p421
sg7
S' Jadeja'
p422
sg9
S'\nfullish on the stumps as he goes back and pushes towards mid-on  </p>]'
p423
ssS'49.2'
p424
(dp425
g3
S'Neesham'
p426
sg5
g50
sg7
S' Mohammed Shami'
p427
sg9
S'\nfull toss outside off and this is flayed away over point. Powerful strike again and India are staring down another 300-plus score  </p>]'
p428
ssS'22.4'
p429
(dp430
g3
S'Williamson'
p431
sg5
S'no run'
p432
sg7
S' Jadeja'
p433
sg9
S'\nbit more air but he still stays back in his crease and slices the ball to short third man  </p>]'
p434
ssS'22.5'
p435
(dp436
g3
S'Williamson'
p437
sg5
S'1 run'
p438
sg7
S' Jadeja'
p439
sg9
S'\nstands up tall as he pushes this length ball on middle to long-on. No spin in this pitch  </p>]'
p440
ssS'7.6'
p441
(dp442
g3
S'Williamson'
p443
sg5
S'no run'
p444
sg7
S' Kumar'
p445
sg9
S'\ntails in on off stump and Williamson moves forward  keeps bat and pad together as he blocks  </p>]'
p446
ssS'43.6'
p447
(dp448
g3
S'Neesham'
p449
sg5
S'no run'
p450
sg7
S' Kohli'
p451
sg9
S'\nlength ball just outside off as he opens the face to steer to point  </p>]'
p452
ssS'6.2'
p453
(dp454
g3
S'Ryder'
p455
sg5
S'no run'
p456
sg7
S' Mohammed Shami'
p457
sg9
S'\n140 kph  probes away outside off as he keeps to a good length. Ryder was intending to push it through the covers  but then pulls his bat away  </p>]'
p458
ssS'7.4'
p459
(dp460
g3
S'Ryder'
p461
sg5
g110
sg7
S' Kumar'
p462
sg9
S"\nRahane takes it on the second grab at gully! It was very full and it swings late enough to lure Ryder's outside edge as he looks for a punishing cover drive. Rahane had to dive to his right but he didn't cup it properly first time around  but the ball was parried in the air long enough for him to dive at the ball going behind him and hold it safely  </p>]"
p463
ssS'34.6'
p464
(dp465
g3
S'Taylor'
p466
sg5
S'no run'
p467
sg7
S' Jadeja'
p468
sg9
S'\nfull on middle and leg as he leans forward and turns it around to square leg  </p>]'
p469
ssS'34.5'
p470
(dp471
g3
S'Williamson'
p472
sg5
S'1 run'
p473
sg7
S' Jadeja'
p474
sg9
S'\nflighted on off stump as he pushes to long-off with a giant stride forward  </p>]'
p475
ssS'7.5'
p476
(dp477
g3
S'Williamson'
p478
sg5
S'no run'
p479
sg7
S' Kumar'
p480
sg9
S'\ngood length ball outside off as Williamson leaves it alone  </p>]'
p481
ssS'34.3'
p482
(dp483
g3
S'Williamson'
p484
sg5
S'no run'
p485
sg7
S' Jadeja'
p486
sg9
S'\npushed down to mid-on as this is fullish on leg stump  </p>]'
p487
ssS'34.2'
p488
(dp489
g3
S'Williamson'
p490
sg5
S'no run'
p491
sg7
S' Jadeja'
p492
sg9
S'\nblocked back to the bowler as this is flatter and on middle  </p>]'
p493
ssS'34.1'
p494
(dp495
g3
S'Williamson'
p496
sg5
g50
sg7
S' Jadeja'
p497
sg9
S"\ninside out over extra again! He's just too good with that stroke. Moved down the track  reached the pitch and lofted it over the man in the infield despite his leap  </p>]"
p498
ssS'24.1'
p499
(dp500
g3
S'Williamson'
p501
sg5
S'1 run'
p502
sg7
S' Jadeja'
p503
sg9
S'\ntoo close to cut as he gets a bit of a bottom edge as this was a touch fuller on fourth stump.  </p>]'
p504
ssS'3.6'
p505
(dp506
g3
S'Guptill'
p507
sg5
S'no run'
p508
sg7
S' Kumar'
p509
sg9
S'\n131 kph  good length ball on off stump as he presses forward and blocks solidly  </p>]'
p510
ssS'3.4'
p511
(dp512
g3
S'Ryder'
p513
sg5
S'1 leg bye'
p514
sg7
S' Kumar'
p515
sg9
S'\nfull and on leg stump  Ryder was looking for the flick but it went off the pads  </p>]'
p516
ssS'3.5'
p517
(dp518
g3
S'Guptill'
p519
sg5
S'no run'
p520
sg7
S' Kumar'
p521
sg9
S'\nfullish on middle and leg as Guptill is forward and pushes a bit wide of mid-on  but Aaron looks an improved fielder today  moving quickly to get behind the ball  </p>]'
p522
ssS'3.2'
p523
(dp524
g3
S'Ryder'
p525
sg5
S'2 runs'
p526
sg7
S' Kumar'
p527
sg9
S"\nthere's a Ryder special. Sees a bit of room outside off  stands up and punches it in front of point. Not hit too hard because if it had been that would have been four  </p>]"
p528
ssS'3.3'
p529
(dp530
g3
S'Ryder'
p531
sg5
S'no run'
p532
sg7
S' Kumar'
p533
sg9
S'\nfullish on middle and leg as it draws Ryder forward into a defensive push to mid-off. Seams away after pitching to end up on off stump  </p>]'
p534
ssS'42.3'
p535
(dp536
g3
S'Taylor'
p537
sg5
S'1 run  </p>]'
p538
sg7
S' Jadeja'
p539
sg9
g399
ssS'3.1'
p540
(dp541
g3
S'Ryder'
p542
sg5
S'2 runs'
p543
sg7
S' Kumar'
p544
sg9
S"\nfullish  but this time it's on the pads and Ryder finds the gap wide of mid-on. There was a bit of seam away  but the line was wrong  </p>]"
p545
ssS'2.3'
p546
(dp547
g3
S'Guptill'
p548
sg5
S'no run'
p549
sg7
S' Mohammed Shami'
p550
sg9
S'\n140 kph  good short ball  just outside the off stump without giving too much room. Guptill was looking to hook originally  but then pulled out  </p>]'
p551
ssS'2.2'
p552
(dp553
g3
S'Guptill'
p554
sg5
S'no run'
p555
sg7
S' Mohammed Shami'
p556
sg9
S'\n139 kph  short and on middle and leg again. Guptill was hopping a little at the crease as he looks to block. Takes the thigh pad and falls at his feet  </p>]'
p557
ssS'2.1'
p558
(dp559
g3
S'Guptill'
p560
sg5
S'no run'
p561
sg7
S' Mohammed Shami'
p562
sg9
S'\n141 kph  back of a length on off stump as he cramps Guptill up.  </p>]'
p563
ssS'36.6'
p564
(dp565
g3
S'Williamson'
p566
sg5
S'1 run'
p567
sg7
S' Kumar'
p568
sg9
S'\nthe more orthodox steer to deep third man as this is back of a length outside off. Partnership moves to 150  </p>]'
p569
ssS'36.1'
p570
(dp571
g3
S'Taylor'
p572
sg5
S'no run'
p573
sg7
S' Kumar'
p574
sg9
S'\ngood length ball just outside off as Taylor comes forward and blocks  </p>]'
p575
ssS'2.6'
p576
(dp577
g3
S'Guptill'
p578
sg5
S'no run'
p579
sg7
S' Mohammed Shami'
p580
sg9
S'\n138kph  fuller and on middle as Guptill moves back and works towards square leg  </p>]'
p581
ssS'2.5'
p582
(dp583
g3
S'Guptill'
p584
sg5
S'no run'
p585
sg7
S' Mohammed Shami'
p586
sg9
S'\n143 kph  just short of a good length as Guptill stays deep in his crease and dabs it more towards point this time.  </p>]'
p587
ssS'2.4'
p588
(dp589
g3
S'Guptill'
p590
sg5
S'no run'
p591
sg7
S' Mohammed Shami'
p592
sg9
S'\nbit of confusion there and Ryder makes the right call. Back of a length  just outside off stump as Guptill dabs into the covers and looks for a quick run. Not there  </p>]'
p593
ssS'20.1'
p594
(dp595
g3
S'Williamson'
p596
sg5
S'1 leg bye'
p597
sg7
S' Aaron'
p598
sg9
S'\n145 kph  full and strays a bit down the leg side  Williamson was looking to clip it away square  but it goes off the pads  </p>]'
p599
ssS'20.2'
p600
(dp601
g3
S'Taylor'
p602
sg5
g50
sg7
S' Aaron'
p603
sg9
S'\n146kph  shortish and a bit outside off. Lures Taylor to cut. But he gets a very thick edge and it goes too fine for deep third man to be in play.  </p>]'
p604
ssS'20.3'
p605
(dp606
g3
S'Taylor'
p607
sg5
S'no run'
p608
sg7
S' Aaron'
p609
sg9
S'\nback of a length at 147 kph as Taylor jumps back and blocks this one just outside off  </p>]'
p610
ssS'20.4'
p611
(dp612
g3
S'Taylor'
p613
sg5
g50
sg7
S' Aaron'
p614
sg9
S'\n143 kph  too wide outside off this time and Taylor has no trouble slapping over and behind point. Easy put away as that brings up the fifty partnership between these two  </p>]'
p615
ssS'20.5'
p616
(dp617
g3
S'Taylor'
p618
sg5
S'no run'
p619
sg7
S' Aaron'
p620
sg9
S'\n150kph  corrects his line as this is fuller and seeking top of off. Taylor moves forward and blocks  </p>]'
p621
ssS'20.6'
p622
(dp623
g3
S'Taylor'
p624
sg5
S'1 run'
p625
sg7
S' Aaron'
p626
sg9
S'\nshort of a length and outside off stump as he cuts it to deep point  </p>]'
p627
ssS'49.6'
p628
(dp629
g3
S'Neesham'
p630
sg5
S'1 bye'
p631
sg7
S' Mohammed Shami'
p632
sg9
S'\nlooks to try something cute as he moves right across outside off and tries to scoop this full length ball over fine leg. Would have done better to stay in his crease and belt that through the covers. Ronchi sneaks in a bye and that ends a pretty solid batting performance by New Zealand  </p>]'
p633
ssS'14.214.214.214.214.214.214.214.214.214.2'
p634
(dp635
g3
S'Taylor'
p636
sg5
S'1 wide'
p637
sg7
S' Aaron'
p638
sg9
S"\n143kph  fires it full and down the leg side. Umpire won't let him get away with that  </p>]"
p639
ssS'42.1'
p640
(dp641
g3
S'McCullum'
p642
sg5
g50
sg7
S' Jadeja'
p643
sg9
S'\ngoes down the track even if Jadeja had bowled this flat and cramped him for room. Baz swings it away wide of long-on and picks up a useful boundary  </p>]'
p644
ssS'22.1'
p645
(dp646
g3
S'Williamson'
p647
sg5
S'1 run'
p648
sg7
S' Jadeja'
p649
sg9
S'\ngood length ball pushed through on leg stump as Willliamson goes back and punches down the ground  </p>]'
p650
ssS'49.3'
p651
(dp652
g3
S'Neesham'
p653
sg5
g50
sg7
S' Mohammed Shami'
p654
sg9
S'\nand there it is  overpitched on leg stump and he gets forward and whips it away effortlessly over square leg. Searching for the yorker but has missed his length by just a little  </p>]'
p655
ssS'39.1'
p656
(dp657
g3
S'McCullum'
p658
sg5
g38
sg7
S' Aaron'
p659
sg9
S'\nchance in the crowd but the orange shirts miss out again. Short on middle as he swivels on the back foot and pulls it over square leg. Strong stroke  </p>]'
p660
ssS'21.5'
p661
(dp662
g3
S'Williamson'
p663
sg5
S'1 run'
p664
sg7
S' Ashwin'
p665
sg9
S'\nflighted on the pads as he brings a straight bat down on it  </p>]'
p666
ssS'49.1'
p667
(dp668
g3
S'Neesham'
p669
sg5
g38
sg7
S' Mohammed Shami'
p670
sg9
S'\ngifts a full toss on off stump and he smacks it over deep midwicket. Flat  hard and monstrously hit. An orange shirt leans over the balcony to try and pluck some cash  dangerous stuff  if not for his mate clinging onto his trousers and balancing him  </p>]'
p671
ssS'40.2'
p672
(dp673
g3
S'Taylor'
p674
sg5
S'no run'
p675
sg7
S' Jadeja'
p676
sg9
S'\nfullish on off stump as he draws the batsman forward to defend  </p>]'
p677
ssS'40.3'
p678
(dp679
g3
S'Taylor'
p680
sg5
S'no run'
p681
sg7
S' Jadeja'
p682
sg9
S'\ngood length ball on off stump again as Taylor pushes towards mid-off but Jadeja gets in between  </p>]'
p683
ssS'40.1'
p684
(dp685
g3
S'McCullum'
p686
sg5
S'1 run'
p687
sg7
S' Jadeja'
p688
sg9
S'\nflighted on middle and leg as he draws the batsman forward. Blocked into the leg side and they scurry through for the single  </p>]'
p689
ssS'40.6'
p690
(dp691
g3
S'Taylor'
p692
sg5
S'1 run'
p693
sg7
S' Jadeja'
p694
sg9
S"\npushed down to long-on as he flights it on middle. Jadeja had to run around the non-striker and wasn't able to stop the ball despite sticking his boot out  </p>]"
p695
ssS'40.4'
p696
(dp697
g3
S'Taylor'
p698
sg5
S'1 run'
p699
sg7
S' Jadeja'
p700
sg9
S'\ngoes shorter outside off as he rocks back and cuts to short third man  </p>]'
p701
ssS'40.5'
p702
(dp703
g3
S'McCullum'
p704
sg5
S'1 run'
p705
sg7
S' Jadeja'
p706
sg9
S'\nflat on middle and off as he shuffles outside off and clips through midwicket  </p>]'
p707
ssS'27.3'
p708
(dp709
g3
S'Williamson'
p710
sg5
S'1 run'
p711
sg7
S' Kohli'
p712
sg9
S'\nmores in as he keeps it full and Williamson is forward and opens the face to short third man  </p>]'
p713
ssS'27.2'
p714
(dp715
g3
S'Williamson'
p716
sg5
S'no run'
p717
sg7
S' Kohli'
p718
sg9
S'\ntouch too full to cut there as he is beaten outside off  </p>]'
p719
ssS'27.1'
p720
(dp721
g3
S'Taylor'
p722
sg5
S'1 run'
p723
sg7
S' Kohli'
p724
sg9
S"\nvery tight single there and they're quick enough to make it. Shortish and outside off as he dabs it softly towards point  </p>]"
p725
ssS'21.6'
p726
(dp727
g3
S'Taylor'
p728
sg5
g50
sg7
S' Ashwin'
p729
sg9
S'\ntouch too short and Taylor moves outside leg and cuts behind point. Boy  how quickly did he get into position  and did someone get the number of the bat swing on that!  </p>]'
p730
ssS'43.3'
p731
(dp732
g3
S'Taylor'
p733
sg5
S'1 run'
p734
sg7
S' Kohli'
p735
sg9
S'\nfull and wide outside off as he drives to deep point  </p>]'
p736
ssS'27.6'
p737
(dp738
g3
S'Williamson'
p739
sg5
S'2 runs'
p740
sg7
S' Kohli'
p741
sg9
S'\nlength ball as he goes back and works it off his hips to deep square leg  </p>]'
p742
ssS'27.5'
p743
(dp744
g3
S'Taylor'
p745
sg5
S'1 run'
p746
sg7
S' Kohli'
p747
sg9
S'\nfull and angled in as Taylor strides forward and drives to deep cover point  </p>]'
p748
ssS'27.4'
p749
(dp750
g3
S'Taylor'
p751
sg5
S'no run'
p752
sg7
S' Kohli'
p753
sg9
S'\ntouch too short and quite wide outside off as he slaps it straight to the fielder at point  </p>]'
p754
ssS'21.1'
p755
(dp756
g3
S'Taylor'
p757
sg5
S'1 run'
p758
sg7
S' Ashwin'
p759
sg9
S"\nflighted on middle as Taylor drives past a diving Ashwin. One of the few he's flighted today  </p>]"
p760
ssS'42.2'
p761
(dp762
g3
S'McCullum'
p763
sg5
S'1 run'
p764
sg7
S' Jadeja'
p765
sg9
S'\noh  he slides then slips and would have been out on had it hit direct. It was fired in on off stump and Baz was looking to go so far forward that he slips. Then while running  he stumbles. Rohit had enough time to throw the stumps down but misses  </p>]'
p766
ssS'12.5'
p767
(dp768
g3
S'Taylor'
p769
sg5
S'no run'
p770
sg7
S' Aaron'
p771
sg9
S'\n144 kph  good length ball speared in on leg stump. Rosco was a little slow on that as it beats his flick and strikes him on the knee-roll. Would have gone down  </p>]'
p772
ssS'42.4'
p773
(dp774
g3
S'McCullum'
p775
sg5
S'2 runs'
p776
sg7
S' Jadeja'
p777
sg9
S'\n<b>dropped</b> charges him and lofts the length ball straight over the top. Shami was the man coming round from long-on and he shells a relatively simple catch  </p>]'
p778
ssS'30.4'
p779
(dp780
g3
S'Williamson'
p781
sg5
S'no run'
p782
sg7
S' Jadeja'
p783
sg9
S'\nflatter delivery on off stump as he pushes back to the bowler  </p>]'
p784
ssS'42.6'
p785
(dp786
g3
S'Taylor'
p787
sg5
S'1 run'
p788
sg7
S' Jadeja'
p789
sg9
S'\ngoes back and cuts behind point as this is a touch short and wide outside off  </p>]'
p790
ssS'25.1'
p791
(dp792
g3
S'Williamson'
p793
sg5
S'no run'
p794
sg7
S' Kohli'
p795
sg9
S'\nwaist high full toss to start and Williamson punches it to mid-on. Both the batsman and the bowler have wry smiles  </p>]'
p796
ssS'25.3'
p797
(dp798
g3
S'Williamson'
p799
sg5
S'1 run'
p800
sg7
S' Kohli'
p801
sg9
S'\nshort and wide outside off as he rocks back and cuts in front of point  </p>]'
p802
ssS'25.2'
p803
(dp804
g3
S'Williamson'
p805
sg5
S'no run'
p806
sg7
S' Kohli'
p807
sg9
S'\nfull and angled in on off stump as he moves forward and drive back to the bowler  </p>]'
p808
ssS'25.5'
p809
(dp810
g3
S'Taylor'
p811
sg5
S'no run'
p812
sg7
S' Kohli'
p813
sg9
S'\nfull and outside off as he drives towards mid-off  </p>]'
p814
ssS'25.4'
p815
(dp816
g3
S'Taylor'
p817
sg5
S'no run'
p818
sg7
S' Kohli'
p819
sg9
S'\ndarts in off the pitch as this is fullish and outside off. Taylor works the angle as he pushes to mid-on  </p>]'
p820
ssS'25.6'
p821
(dp822
g3
S'Taylor'
p823
sg5
S'no run'
p824
sg7
S' Kohli'
p825
sg9
S'\nfull and angled in at him as Taylor pushes to mid-on. Nice  tight start from the part-timer  </p>]'
p826
ssS'21.2'
p827
(dp828
g3
S'Williamson'
p829
sg5
S'1 run'
p830
sg7
S' Ashwin'
p831
sg9
S'\nflatter on leg stump as Williamson skips down the track and works him away to deep midwicket  </p>]'
p832
ssS'28.6'
p833
(dp834
g3
S'Taylor'
p835
sg5
S'no run'
p836
sg7
S' Jadeja'
p837
sg9
S'\nturns it away to backward square leg as this is fullish and on the pads  </p>]'
p838
ssS'23.6'
p839
(dp840
g3
S'Williamson'
p841
sg5
S'1 run'
p842
sg7
S' Ashwin'
p843
sg9
S'\nturned past square leg for a single as Ashwin shortens his length. Brilliant batting against spin.  </p>]'
p844
ssS'4.44.44.44.44.44.44.44.44.44.4'
p845
(dp846
g3
S'Ryder'
p847
sg5
g637
sg7
S' Mohammed Shami'
p848
sg9
S"\nloses his radar again  this one off a good length ball. Sprays it down the leg side as Ryder looks to tickle it away  doesn't connect.  </p>]"
p849
ssS'23.4'
p850
(dp851
g3
S'Williamson'
p852
sg5
g50
sg7
S' Ashwin'
p853
sg9
S'\nbrilliant footwork! charges down and lofts him over extra cover. Made a little bit of room as well and has timed this to perfection  </p>]'
p854
ssS'23.3'
p855
(dp856
g3
S'Williamson'
p857
sg5
S'no run'
p858
sg7
S' Ashwin'
p859
sg9
S'\ndriven down the ground back to the bowler again as this is flighted on middle  </p>]'
p860
ssS'23.2'
p861
(dp862
g3
S'Williamson'
p863
sg5
S'no run'
p864
sg7
S' Ashwin'
p865
sg9
S'\nflighted on leg stump as he chips down the track and drives to Ashwin  </p>]'
p866
ssS'23.1'
p867
(dp868
g3
S'Williamson'
p869
sg5
S'2 runs'
p870
sg7
S' Ashwin'
p871
sg9
S'\nstands up tall as this is on a good length and pushed across him. Not good fielding in the covers as they pick up two  </p>]'
p872
ssS'32.1'
p873
(dp874
g3
S'Taylor'
p875
sg5
S'1 run'
p876
sg7
S' Jadeja'
p877
sg9
S'\ntossed up on middle and leg as he drives to long off. Bit inside out there  </p>]'
p878
ssS'32.3'
p879
(dp880
g3
S'Taylor'
p881
sg5
S'2 runs'
p882
sg7
S' Jadeja'
p883
sg9
S'\ncut away quite fine. It was flatter and quicker on off stump and yet he manage to get it fine of short third man  </p>]'
p884
ssS'32.2'
p885
(dp886
g3
S'Williamson'
p887
sg5
S'1 run'
p888
sg7
S' Jadeja'
p889
sg9
S'\nhas his weight on the back foot as this is tossed up on middle and off and he steers this away to deep cover  </p>]'
p890
ssS'32.5'
p891
(dp892
g3
S'Taylor'
p893
sg5
S'no run'
p894
sg7
S' Jadeja'
p895
sg9
S'\nreaches forward as he defends to the off side  </p>]'
p896
ssS'32.4'
p897
(dp898
g3
S'Taylor'
p899
sg5
S'no run'
p900
sg7
S' Jadeja'
p901
sg9
S'\nbig appeal from Jadeja as he fires this in on middle and leg. Going down though  </p>]'
p902
ssS'32.6'
p903
(dp904
g3
S'Taylor'
p905
sg5
S'no run'
p906
sg7
S' Jadeja'
p907
sg9
S'\nfull on middle and leg as he defends with bat in front of pad  </p>]'
p908
ssS'33.4'
p909
(dp910
g3
S'Taylor'
p911
sg5
S'1 run'
p912
sg7
S' Kohli'
p913
sg9
S'\nlow full toss on off stump as he whips it to long-on  </p>]'
p914
ssS'19.4'
p915
(dp916
g3
S'Taylor'
p917
sg5
S'no run'
p918
sg7
S' Ashwin'
p919
sg9
S'\ngoes on with the arm as Taylor moves back and outside off stump as he works it wide of mid-on but not far enough  </p>]'
p920
ssS'33.6'
p921
(dp922
g3
S'Williamson'
p923
sg5
S'1 run'
p924
sg7
S' Kohli'
p925
sg9
S'\nfull on off stump as he drives solidly to long-off  </p>]'
p926
ssS'33.1'
p927
(dp928
g3
S'Williamson'
p929
sg5
g50
sg7
S' Kohli'
p930
sg9
S'\ndragged it too far short for the pace he bowls. Williamson goes back and pulls powerfully  </p>]'
p931
ssS'33.2'
p932
(dp933
g3
S'Williamson'
p934
sg5
S'no run'
p935
sg7
S' Kohli'
p936
sg9
S'\ndriven back to the bowler  </p>]'
p937
ssS'19.5'
p938
(dp939
g3
S'Taylor'
p940
sg5
S'1 run'
p941
sg7
S' Ashwin'
p942
sg9
S'\ntossed up on leg stump as he leans forward and works it through to deep midwicket  </p>]'
p943
ssS'19.6'
p944
(dp945
g3
S'Williamson'
p946
sg5
S'1 run'
p947
sg7
S' Ashwin'
p948
sg9
S'\ntouch shorter on leg stump as Williamson goes back and clips it through square leg for an easy single  </p>]'
p949
ssS'29.4'
p950
(dp951
g3
S'Williamson'
p952
sg5
S'no run'
p953
sg7
S' Kohli'
p954
sg9
S'\ntouch short and with a bit of width as well as Taylor steers it behind short third man  </p>]'
p955
ssS'39.6'
p956
(dp957
g3
S'Taylor'
p958
sg5
S'no run'
p959
sg7
S' Aaron'
p960
sg9
S'\nlength ball just outside off as he looks to cut  there was a bit of away movement again which makes him miss the ball  </p>]'
p961
ssS'39.4'
p962
(dp963
g3
S'McCullum'
p964
sg5
S'no run'
p965
sg7
S' Aaron'
p966
sg9
S'\n149kph  yorker and it moves away rather late too. Baz looks to carve it through point but misses  </p>]'
p967
ssS'39.5'
p968
(dp969
g3
S'McCullum'
p970
sg5
S'1 run'
p971
sg7
S' Aaron'
p972
sg9
S'\nfull on off stump and a diving effort from Rohit at cover saves a boundary. Baz had got forward quickly and drilled it  </p>]'
p973
ssS'39.2'
p974
(dp975
g3
S'McCullum'
p976
sg5
S'1 run'
p977
sg7
S' Aaron'
p978
sg9
S'\nback of a length outside off as he opens the face and dabs into the covers  </p>]'
p979
ssS'39.3'
p980
(dp981
g3
S'Taylor'
p982
sg5
S'1 run'
p983
sg7
S' Aaron'
p984
sg9
S'\nfullish and just outside off as he leans forward and drives to mid-off.  </p>]'
p985
ssS'19.1'
p986
(dp987
g3
S'Williamson'
p988
sg5
S'2 runs'
p989
sg7
S' Ashwin'
p990
sg9
S'\ngood work at deep midwicket as Dhawan dives to his left. It was tossed up on leg stump and Willliamson charges him and lofts over the infield. Clean strike  </p>]'
p991
ssS'8.1'
p992
(dp993
g3
S'Guptill'
p994
sg5
S'2 runs'
p995
sg7
S' Mohammed Shami'
p996
sg9
S'\non the pads and he works it down to long leg for a couple. A bit too short and too straight there  </p>]'
p997
ssS'21.4'
p998
(dp999
g3
S'Taylor'
p1000
sg5
S'1 run'
p1001
sg7
S' Ashwin'
p1002
sg9
S'\nTaylor leans forward and opens the face as this is tossed up on off stump. Quick single through the covers  </p>]'
p1003
ssS'8.3'
p1004
(dp1005
g3
S'Williamson'
p1006
sg5
S'no run'
p1007
sg7
S' Mohammed Shami'
p1008
sg9
S'\n137kph  shortish and outside off as Williamson stands up tall and slaps into the covers  </p>]'
p1009
ssS'8.2'
p1010
(dp1011
g3
S'Guptill'
p1012
sg5
S'1 run'
p1013
sg7
S' Mohammed Shami'
p1014
sg9
S'\nclipped behind square leg as Shami bowls back of a good length and on the pads again  </p>]'
p1015
ssS'8.5'
p1016
(dp1017
g3
S'Guptill'
p1018
sg5
g50
sg7
S' Mohammed Shami'
p1019
sg9
S"\nfull and a bit of width on offer as Guptill flays it through the covers. It was uppish  but he'd found the gap to the left of the man at cover. Decent timing on that  even if the bat face turned on impact  </p>]"
p1020
ssS'8.4'
p1021
(dp1022
g3
S'Williamson'
p1023
sg5
S'1 run'
p1024
sg7
S' Mohammed Shami'
p1025
sg9
S'\nback of a length on and on the stumps as Williamson as he tucks it in front of midwicket for a good  quick single  </p>]'
p1026
ssS'21.3'
p1027
(dp1028
g3
S'Taylor'
p1029
sg5
S'no run'
p1030
sg7
S' Ashwin'
p1031
sg9
S'\ngood length ball  which hardly turns  on off stump as Taylor pushes it back down the pitch  </p>]'
p1032
ssS'8.6'
p1033
(dp1034
g3
S'Guptill'
p1035
sg5
S'no run'
p1036
sg7
S' Mohammed Shami'
p1037
sg9
S'\ngood length on middle and leg as he shuffles across and dabs towards midwicket  </p>]'
p1038
ssS'19.3'
p1039
(dp1040
g3
S'Taylor'
p1041
sg5
S'no run'
p1042
sg7
S' Ashwin'
p1043
sg9
S'\nflighted on middle and leg as Taylor comes forward and pushes towards mid-on  </p>]'
p1044
ssS'44.4'
p1045
(dp1046
g3
S'Taylor'
p1047
sg5
S'1 run'
p1048
sg7
S' Aaron'
p1049
sg9
S'\nfull on middle as he leans forward and clips to deep midwicket  </p>]'
p1050
ssS'42.5'
p1051
(dp1052
g3
S'McCullum'
p1053
sg5
S'1 run  </p>]'
p1054
sg7
S' Jadeja'
p1055
sg9
g399
ssS'4.14.14.14.14.14.14.14.14.14.1'
p1056
(dp1057
g3
S'Ryder'
p1058
sg5
g637
sg7
S' Mohammed Shami'
p1059
sg9
S'\nbouncer first up to Ryder as well  this one a bit down the leg side. Ryder ducks under and watches the umpire stretch his hands out  </p>]'
p1060
ssS'30.3'
p1061
(dp1062
g3
S'Williamson'
p1063
sg5
S'no run'
p1064
sg7
S' Jadeja'
p1065
sg9
S'\na bit short on off stump as he cuts to short third man  </p>]'
p1066
ssS'44.5'
p1067
(dp1068
g3
S'Neesham'
p1069
sg5
S'no run'
p1070
sg7
S' Aaron'
p1071
sg9
S"\n147kph  full and a bit wide outside off. Neesham's feet don't move much as he looks to drive through the covers and gets a thick bottom edge  </p>]"
p1072
ssS'9.4'
p1073
(dp1074
g3
S'Guptill'
p1075
sg5
S'no run'
p1076
sg7
S' Kumar'
p1077
sg9
S'\nback of a length just outside off as he opens the face and pushes into the covers  </p>]'
p1078
ssS'9.5'
p1079
(dp1080
g3
S'Guptill'
p1081
sg5
S'no run'
p1082
sg7
S' Kumar'
p1083
sg9
S'\nshort enough for him to go back and cover punch to point with an open face  </p>]'
p1084
ssS'9.6'
p1085
(dp1086
g3
S'Guptill'
p1087
sg5
S'no run'
p1088
sg7
S' Kumar'
p1089
sg9
S"\nfullish on that off stump corridor as Guptill is kept to a forward defensive. He really shouldn't be batting out there  bad miss from Aaron  </p>]"
p1090
ssS'9.1'
p1091
(dp1092
g3
S'Williamson'
p1093
sg5
S'1 run'
p1094
sg7
S' Kumar'
p1095
sg9
S'\nmoves it away as he starts on off stump  but Williamson is on the back foot and keeps the bat close to the body and plays it very late down to third man  </p>]'
p1096
ssS'9.2'
p1097
(dp1098
g3
S'Guptill'
p1099
sg5
S'no run'
p1100
sg7
S' Kumar'
p1101
sg9
S'\nmis-hit pull and mid-on drops it. It was short and Guptil goes for a front-foot pull. Very late on the shot there and Aaron was in no position to take it. He was diving to the right needlessly because the ball was coming straight at him  around shigh height  and with the balance lost  he shells it  </p>]'
p1102
ssS'9.3'
p1103
(dp1104
g3
S'Guptill'
p1105
sg5
S'no run'
p1106
sg7
S' Kumar'
p1107
sg9
S'\nfullish on off stump as he looks to turn it to midwicket  but gets a leading edge  </p>]'
p1108
ssS'34.4'
p1109
(dp1110
g3
S'Williamson'
p1111
sg5
S'2 runs'
p1112
sg7
S' Jadeja'
p1113
sg9
S'\nbit more flight as he drives to long-off. Jadeja himself races after the ball  but has to pull away as the man in the deep runs in  </p>]'
p1114
ssS'41.6'
p1115
(dp1116
g3
S'Taylor'
p1117
sg5
S'no run'
p1118
sg7
S' Kohli'
p1119
sg9
S'\nstrides forward and drives the full length ball back down the pitch. Kohli dives to his right to prevent the single  </p>]'
p1120
ssS'41.5'
p1121
(dp1122
g3
S'McCullum'
p1123
sg5
S'1 run'
p1124
sg7
S' Kohli'
p1125
sg9
S'\nfullish on and around off as he pushes it through the off side  </p>]'
p1126
ssS'41.4'
p1127
(dp1128
g3
S'McCullum'
p1129
sg5
S'no run'
p1130
sg7
S' Kohli'
p1131
sg9
S"\ntouch quicker and it moves in as well. Baz was shapeing to late cut it but there wasn't enough room and he had to bring down a straight bat  </p>]"
p1132
ssS'36.336.336.336.336.336.336.336.336.336.3'
p1133
(dp1134
g3
S'Taylor'
p1135
sg5
g637
sg7
S' Kumar'
p1136
sg9
S'\nfull and fired down the leg side as Taylor moved across outside off and looked to slog it away into the leg side  </p>]'
p1137
ssS'41.2'
p1138
(dp1139
g3
S'McCullum'
p1140
sg5
S'1 run'
p1141
sg7
S' Kohli'
p1142
sg9
S'\nfull and angled in on off stump as he gets a good stride forward and drills it to long-on  </p>]'
p1143
ssS'30.1'
p1144
(dp1145
g3
S'Williamson'
p1146
sg5
S'1 leg bye'
p1147
sg7
S' Jadeja'
p1148
sg9
S'\ngood length ball on the pads as he looks to whip it away behind square leg  </p>]'
p1149
ssS'30.6'
p1150
(dp1151
g3
S'Williamson'
p1152
sg5
g50
sg7
S' Jadeja'
p1153
sg9
S"\nand again  this time squarer and he's got a lot more bat on this. Even Jadeja's looking clueless as Williamson gets down on one knee and takes this from outside off as well  </p>]"
p1154
ssS'44.2'
p1155
(dp1156
g3
S'Neesham'
p1157
sg5
S'no run'
p1158
sg7
S' Aaron'
p1159
sg9
S'\nback of a length and angled across the left-hander as he guides to point off the back foot  </p>]'
p1160
ssS'43.5'
p1161
(dp1162
g3
S'McCullum'
p1163
sg5
g110
sg7
S' Kohli'
p1164
sg9
S"\nslapped straight to cover! Charged down the track and was looking to beat the fielder inside the circle. Was making a bit of room for himself and may have ended up going too leg side as he doesn't get enough bat on it  </p>]"
p1165
ssS'15.4'
p1166
(dp1167
g3
S'Taylor'
p1168
sg5
S'no run'
p1169
sg7
S' Ashwin'
p1170
sg9
S"\ntossed up on middle and leg as he shuffles across and pushes to mid-on. Shawan slips but they don't take the single as Ashwin runs to help  </p>]"
p1171
ssS'28.2'
p1172
(dp1173
g3
S'Williamson'
p1174
sg5
S'no run'
p1175
sg7
S' Jadeja'
p1176
sg9
S'\nfullish on off stump as he steps forward to defend  </p>]'
p1177
ssS'28.3'
p1178
(dp1179
g3
S'Williamson'
p1180
sg5
g50
sg7
S' Jadeja'
p1181
sg9
S'\ncuts it and finds the gap behind point. Took it from the stumps as he made a bit of room and places it to the left of the man in the deep as well  </p>]'
p1182
ssS'28.4'
p1183
(dp1184
g3
S'Williamson'
p1185
sg5
S'no run'
p1186
sg7
S' Jadeja'
p1187
sg9
S'\nfull and fired in down the pads as Williamson looks to glance it down. Dhoni goes up in appeal as he takes it nicely  but it had come off the pad  </p>]'
p1188
ssS'28.5'
p1189
(dp1190
g3
S'Williamson'
p1191
sg5
S'1 run'
p1192
sg7
S' Jadeja'
p1193
sg9
S'\ntossed up just outside off as he drives down to long-off  </p>]'
p1194
ssS'7.3'
p1195
(dp1196
g3
S'Ryder'
p1197
sg5
S'no run'
p1198
sg7
S' Kumar'
p1199
sg9
S'\nfullish on and around off stump as Ryder defends it down the pitch  </p>]'
p1200
ssS'15.5'
p1201
(dp1202
g3
S'Taylor'
p1203
sg5
S'1 run'
p1204
sg7
S' Ashwin'
p1205
sg9
S'\nnudged to mid-on again and Taylor runs with the front foot push and makes it comfortably  despite the throw  </p>]'
p1206
ssS'19.2'
p1207
(dp1208
g3
S'Williamson'
p1209
sg5
S'1 run'
p1210
sg7
S' Ashwin'
p1211
sg9
S'\na little shorter  and pushed through quicker on leg stump as he clips it through midwicket off the back foot  </p>]'
p1212
ssS'38.2'
p1213
(dp1214
g3
S'Taylor'
p1215
sg5
S'2 runs'
p1216
sg7
S' Mohammed Shami'
p1217
sg9
S'\nedged and through to deep third man as this is shortish and outside off. Taylor was looking to drive on the up  </p>]'
p1218
ssS'31.6'
p1219
(dp1220
g3
S'Taylor'
p1221
sg5
S'1 run'
p1222
sg7
S' Kohli'
p1223
sg9
S'\nfullish and on middle and leg as he drives to long-on  </p>]'
p1224
ssS'38.4'
p1225
(dp1226
g3
S'Taylor'
p1227
sg5
S'no run'
p1228
sg7
S' Mohammed Shami'
p1229
sg9
S'\nslower short ball and it had a bit of room outside off too. Taylor was into position too early and tried to adjust his cut shot  but misses  </p>]'
p1230
ssS'31.4'
p1231
(dp1232
g3
S'Taylor'
p1233
sg5
S'no run'
p1234
sg7
S' Kohli'
p1235
sg9
S'\nshort and angled in again as Taylor cuts to point  </p>]'
p1236
ssS'31.5'
p1237
(dp1238
g3
S'Taylor'
p1239
sg5
S'no run'
p1240
sg7
S' Kohli'
p1241
sg9
S'\nopens the face as this comes in at him off a length. Point does better this time as he rushes forward and dives  </p>]'
p1242
ssS'31.2'
p1243
(dp1244
g3
S'Williamson'
p1245
sg5
S'no run'
p1246
sg7
S' Kohli'
p1247
sg9
S'\nlooks to hit this a little too hard and gets a bottom edge as this is on a length and wide of off  </p>]'
p1248
ssS'31.3'
p1249
(dp1250
g3
S'Williamson'
p1251
sg5
S'1 run'
p1252
sg7
S' Kohli'
p1253
sg9
S'\nfull and wide outside off as he drives through to deep cover  </p>]'
p1254
ssS'31.1'
p1255
(dp1256
g3
S'Taylor'
p1257
sg5
S'1 run'
p1258
sg7
S' Kohli'
p1259
sg9
S'\nlength ball on off stump as he steps towards leg and steers it in front of point  </p>]'
p1260
ssS'18.1'
p1261
(dp1262
g3
S'Taylor'
p1263
sg5
S'no run'
p1264
sg7
S' Aaron'
p1265
sg9
S'\n142kph  good length ball on off stump as Taylor is solidly behind it  </p>]'
p1266
ssS'18.3'
p1267
(dp1268
g3
S'Williamson'
p1269
sg5
S'no run'
p1270
sg7
S' Aaron'
p1271
sg9
S'\n147 kph  short and just outside off as Williamson gets on top of the bounce and defends int othe covers  </p>]'
p1272
ssS'18.2'
p1273
(dp1274
g3
S'Taylor'
p1275
sg5
S'1 run'
p1276
sg7
S' Aaron'
p1277
sg9
S'\n143kph  short and on the body as he jumps back in his crease and works it in front of square leg  </p>]'
p1278
ssS'18.5'
p1279
(dp1280
g3
S'Taylor'
p1281
sg5
S'no run'
p1282
sg7
S' Aaron'
p1283
sg9
S'\n147 kph  shortish and just outside off again as Taylor hops up and guides it to point  </p>]'
p1284
ssS'18.4'
p1285
(dp1286
g3
S'Williamson'
p1287
sg5
S'1 run'
p1288
sg7
S' Aaron'
p1289
sg9
S'\n143 kph  just short of a good length as he punches through the covers. Nicely balanced on the back foot there  </p>]'
p1290
ssS'18.6'
p1291
(dp1292
g3
S'Taylor'
p1293
sg5
S'no run'
p1294
sg7
S' Aaron'
p1295
sg9
S"\n140 kph  short on off stump as Taylor defends towards where short leg might have been. Though he's testing the middle of the pitch  he's not giving any room for the batsman to exploit. Looks like he's learned from the previous game  </p>]"
p1296
ssS'1.4'
p1297
(dp1298
g3
S'Guptill'
p1299
sg5
S'no run'
p1300
sg7
S' Kumar'
p1301
sg9
S'\n130 kph  classic away swinger to beat the outside edge. Lovely seam position as this is angled in on off stump to lure the batsman into a forward defensive  but the movement away is too good for him  </p>]'
p1302
ssS'1.5'
p1303
(dp1304
g3
S'Guptill'
p1305
sg5
S'no run'
p1306
sg7
S' Kumar'
p1307
sg9
S'\nfullish on off stump as he presses forward again and gets it off the outside half of the bat to the covers  </p>]'
p1308
ssS'1.6'
p1309
(dp1310
g3
S'Guptill'
p1311
sg5
S'1 run'
p1312
sg7
S' Kumar'
p1313
sg9
S"\nleading edge this time as he looks to nudge into midwicket  but Bhuvi's away swing ensures this fullish delivery on the stumps squirts away in front of point  </p>]"
p1314
ssS'1.1'
p1315
(dp1316
g3
S'Ryder'
p1317
sg5
S'no run'
p1318
sg7
S' Kumar'
p1319
sg9
S'\ntight line on middle and leg as Ryder is half-forward and defends towards midwicket  </p>]'
p1320
ssS'1.2'
p1321
(dp1322
g3
S'Ryder'
p1323
sg5
S'no run'
p1324
sg7
S' Kumar'
p1325
sg9
S'\n131kph  fullish and in the corridor. Curls away from the bat  Ryder is content to leave it alone  </p>]'
p1326
ssS'1.3'
p1327
(dp1328
g3
S'Ryder'
p1329
sg5
S'1 run'
p1330
sg7
S' Kumar'
p1331
sg9
S'\nlength ball  strays on the pads this time and Ryder has no problems clipping it to long leg and gets of the mark  </p>]'
p1332
ssS'0.1'
p1333
(dp1334
g3
S'Guptill'
p1335
sg5
S'no run'
p1336
sg7
S' Mohammed Shami'
p1337
sg9
S'\n121 kph  short one outside off  Guptill sways away  </p>]'
p1338
ssS'30.2'
p1339
(dp1340
g3
S'Taylor'
p1341
sg5
S'1 run'
p1342
sg7
S' Jadeja'
p1343
sg9
S"\nthat's a double whammy. Taylor's fifty and the hundred partnership as he drives this tossed up delivery on middle to long-on  </p>]"
p1344
ssS'0.3'
p1345
(dp1346
g3
S'Guptill'
p1347
sg5
S'no run'
p1348
sg7
S' Mohammed Shami'
p1349
sg9
S'\n139kph  back of a length and angled in at the body as Guptill works it off his hips to midwicket  </p>]'
p1350
ssS'0.2'
p1351
(dp1352
g3
S'Guptill'
p1353
sg5
S'no run'
p1354
sg7
S' Mohammed Shami'
p1355
sg9
S'\n136kph  good length ball on middle and leg as Guptill defends to mid-on  </p>]'
p1356
ssS'0.5'
p1357
(dp1358
g3
S'Guptill'
p1359
sg5
S'no run'
p1360
sg7
S' Mohammed Shami'
p1361
sg9
S'\n140kph  another short one  this right over middle as Guptill sinks low under it. Bit of swing away after it passes the batsman and Dhoni does well as he had to change direction after moving down the leg side  </p>]'
p1362
ssS'0.4'
p1363
(dp1364
g3
S'Guptill'
p1365
sg5
S'no run'
p1366
sg7
S' Mohammed Shami'
p1367
sg9
S'\n137kph  inside edges this fullish delivery outside off. Deflects off his pads and goes towards point  </p>]'
p1368
ssS'30.5'
p1369
(dp1370
g3
S'Williamson'
p1371
sg5
g50
sg7
S' Jadeja'
p1372
sg9
S'\njust enough flight and he sweeps it from outside off and gets well fine of the man at short third man. Lovely footwork and timing  </p>]'
p1373
ssS'0.6'
p1374
(dp1375
g3
S'Guptill'
p1376
sg5
S'no run'
p1377
sg7
S' Mohammed Shami'
p1378
sg9
S"\n139kph  back of a length and in the channel as Guptill stays in his crease and pushes it into the covers and that's a maiden  </p>]"
p1379
ssS'38.3'
p1380
(dp1381
g3
S'Taylor'
p1382
sg5
S'no run'
p1383
sg7
S' Mohammed Shami'
p1384
sg9
S'\ndrilled into the covers but Rohit does well. Fullish and just outside off as he comes forward and unleashes a powerful drive  </p>]'
p1385
ssS'36.5'
p1386
(dp1387
g3
S'Williamson'
p1388
sg5
g50
sg7
S' Kumar'
p1389
sg9
S"\nramped it right over the keeper's head for another boundary. It was dug in very short and Williamson got in line  swayed away and helps it along  </p>]"
p1390
ssS'38.1'
p1391
(dp1392
g3
S'Taylor'
p1393
sg5
g50
sg7
S' Mohammed Shami'
p1394
sg9
S'\nback of a length and down the pads as Taylor glances it fine and picks up another simple boundary  </p>]'
p1395
ssS'38.6'
p1396
(dp1397
g3
S'McCullum'
p1398
sg5
S'1 leg bye'
p1399
sg7
S' Mohammed Shami'
p1400
sg9
S"\noff the thigh pad this time as it is short of a length and tailing down leg. Looks to flick it away  but can't connect  </p>]"
p1401
ssS'38.5'
p1402
(dp1403
g3
S'Taylor'
p1404
sg5
S'1 run'
p1405
sg7
S' Mohammed Shami'
p1406
sg9
S'\nangled in on middle as he pushes into the covers with soft hands for a single  </p>]'
p1407
ssS'36.4'
p1408
(dp1409
g3
S'Taylor'
p1410
sg5
S'1 run'
p1411
sg7
S' Kumar'
p1412
sg9
S'\nwhipped away off his hips through square leg as this is a touch short and down leg  </p>]'
p1413
ssS'13.6'
p1414
(dp1415
g3
S'Taylor'
p1416
sg5
S'1 run'
p1417
sg7
S' Ashwin'
p1418
sg9
S'\nspins the other way again as Taylor looks to defend down the ground and gets a thick outside edge past slip  </p>]'
p1419
ssS'13.4'
p1420
(dp1421
g3
S'Taylor'
p1422
sg5
S'no run'
p1423
sg7
S' Ashwin'
p1424
sg9
S'\nkeeps it tight on middle and off as Taylor keeps it out  </p>]'
p1425
ssS'13.5'
p1426
(dp1427
g3
S'Taylor'
p1428
sg5
S'no run'
p1429
sg7
S' Ashwin'
p1430
sg9
S'\npushes this one across the right-hander who was defending down the wrong line. Beaten outside off  </p>]'
p1431
ssS'13.2'
p1432
(dp1433
g3
S'Taylor'
p1434
sg5
S'no run'
p1435
sg7
S' Ashwin'
p1436
sg9
S'\nflighted on off stump as he moves around the wicket and clips it down to mid-on  </p>]'
p1437
ssS'13.3'
p1438
(dp1439
g3
S'Taylor'
p1440
sg5
S'no run'
p1441
sg7
S' Ashwin'
p1442
sg9
S'\nfull  if a little flat on leg stump as he nudges to midwicket  </p>]'
p1443
ssS'13.1'
p1444
(dp1445
g3
S'Williamson'
p1446
sg5
S'1 run'
p1447
sg7
S' Ashwin'
p1448
sg9
S'\non a good length as he clips it behind square leg  </p>]'
p1449
ssS'4.5'
p1450
(dp1451
g3
S'Ryder'
p1452
sg5
S'no run'
p1453
sg7
S' Mohammed Shami'
p1454
sg9
S'\nwonderful timing from Ryder. This was back of a length and angled across him as Ryder stays put on the back foot and slaps it straight to cover  </p>]'
p1455
ssS'4.4'
p1456
(dp1457
g3
S'Ryder'
p1458
sg5
S'no run'
p1459
sg7
S' Mohammed Shami'
p1460
sg9
S'\n139kph  back of a length on and around off stump. Ryder is a little square up as he dabs it towards cover point  </p>]'
p1461
ssS'5.2'
p1462
(dp1463
g3
S'Ryder'
p1464
sg5
g38
sg7
S' Kumar'
p1465
sg9
S"\nthere's the pressure release. A swat over midwicket and it was not too much wrong with the ball  good length on middle and leg. Great timing as he bent his knee and almost swept it away. Two orange shirts waiting  but it's taken by someone else  with two hands  </p>]"
p1466
ssS'4.6'
p1467
(dp1468
g3
S'Ryder'
p1469
sg5
S'1 run'
p1470
sg7
S' Mohammed Shami'
p1471
sg9
S'\nedged and it flies square of the man at gully. Good length ball probing in that off stump channel as Ryder pokes with an open face.  </p>]'
p1472
ssS'4.1'
p1473
(dp1474
g3
S'Ryder'
p1475
sg5
S'no run'
p1476
sg7
S' Mohammed Shami'
p1477
sg9
S'\n140kph  just short of a good length and it seams away after pitching. Started just a touch outside off though and Ryder leaves with the angle. Good  quick delivery  </p>]'
p1478
ssS'5.5'
p1479
(dp1480
g3
S'Guptill'
p1481
sg5
S'no run'
p1482
sg7
S' Kumar'
p1483
sg9
S'\nfull on off stump as Guptill leans forward and turns it to midwicket  </p>]'
p1484
ssS'4.3'
p1485
(dp1486
g3
S'Ryder'
p1487
sg5
S'no run'
p1488
sg7
S' Mohammed Shami'
p1489
sg9
S'\npunched into the covers as this is shorter with a bit of room. Right of the middle as he was balanced on the back foot  </p>]'
p1490
ssS'4.2'
p1491
(dp1492
g3
S'Ryder'
p1493
sg5
S'no run'
p1494
sg7
S' Mohammed Shami'
p1495
sg9
S"\n140 kph  another Ryder special  though he wouldn't want to see this on the replay. Has a bit of a waft outside off as this is on a good length and angled across him. No footwork and beaten  </p>]"
p1496
ssS'11.4'
p1497
(dp1498
g3
S'Guptill'
p1499
sg5
S'1 run'
p1500
sg7
S' Kumar'
p1501
sg9
S'\ngood length ball on middle as he clips it wide of mid-on and rushes through for a quick single.  </p>]'
p1502
ssS'11.5'
p1503
(dp1504
g3
S'Williamson'
p1505
sg5
S'no run'
p1506
sg7
S' Kumar'
p1507
sg9
S"\nbouncer outside off stump to Williamson  who doesn't bother with it. Went around head high  </p>]"
p1508
ssS'11.6'
p1509
(dp1510
g3
S'Williamson'
p1511
sg5
S'no run'
p1512
sg7
S' Kumar'
p1513
sg9
S'\nfull and tails down the pads as Williamson goes forward and drives to mid-on  </p>]'
p1514
ssS'11.1'
p1515
(dp1516
g3
S'Guptill'
p1517
sg5
S'no run'
p1518
sg7
S' Kumar'
p1519
sg9
S'\n132 kph  angles it in which draws Guptill forward to block  but the ball curls away and beats him. Terrific delivery  </p>]'
p1520
ssS'11.2'
p1521
(dp1522
g3
S'Guptill'
p1523
sg5
S'no run'
p1524
sg7
S' Kumar'
p1525
sg9
S'\nfullish and closer to off stump as Guptil this time covers the away swing and blocks off the front foot  </p>]'
p1526
ssS'11.3'
p1527
(dp1528
g3
S'Guptill'
p1529
sg5
g50
sg7
S' Kumar'
p1530
sg9
S"\nlaunches it straight over the head of the bowler. Another fullish delivery on off stump hit through the line because of the power he has. Not perfectly timed  but he'll feel better after that shot  </p>]"
p1531
ssS'17.2'
p1532
(dp1533
g3
S'Williamson'
p1534
sg5
S'2 runs'
p1535
sg7
S' Ashwin'
p1536
sg9
S'\nworks it away through midwicket despite Ashwin pushing the ball full and across Williamson  </p>]'
p1537
ssS'17.3'
p1538
(dp1539
g3
S'Williamson'
p1540
sg5
S'no run'
p1541
sg7
S' Ashwin'
p1542
sg9
S'\nchips down the track and drives the tossed up delivery on leg stump to mid-on  </p>]'
p1543
ssS'17.1'
p1544
(dp1545
g3
S'Williamson'
p1546
sg5
S'no run'
p1547
sg7
S' Ashwin'
p1548
sg9
S'\nmoves down the track as he defends this flatter one angled across him  </p>]'
p1549
ssS'17.6'
p1550
(dp1551
g3
S'Williamson'
p1552
sg5
g50
sg7
S' Ashwin'
p1553
sg9
S"\nthis time he's struck it more cleanly. Skipped down the track and though he wasn't to the pitch of it  swung through. Was always looking to use a straight bat and he reaps good benefits from it  </p>]"
p1554
ssS'36.3'
p1555
(dp1556
g3
S'Taylor'
p1557
sg5
g50
sg7
S' Kumar'
p1558
sg9
S"\nthere's that slog over midwicket that the old Taylor was famous for. Good length ball on off stump and he went forward and smacked it over the infield  </p>]"
p1559
ssS'17.4'
p1560
(dp1561
g3
S'Williamson'
p1562
sg5
S'no run'
p1563
sg7
S' Ashwin'
p1564
sg9
S'\nadvances again as Ashwin shortens his length on leg stump and keeps him to a defensive push  </p>]'
p1565
ssS'17.5'
p1566
(dp1567
g3
S'Williamson'
p1568
sg5
S'2 runs'
p1569
sg7
S' Ashwin'
p1570
sg9
S'\nflighted on leg stump as Williamson lofts him over mid-on. But there is protection in the deep as well  </p>]'
p1571
ssS'47.1'
p1572
(dp1573
g3
S'Neesham'
p1574
sg5
S'1 run'
p1575
sg7
S' Mohammed Shami'
p1576
sg9
S"\n138 kph  good length ball but he's stuck on the back foot as he looked to pull. Gets a big inside edge and goes to the other end  </p>]"
p1577
ssS'46.3'
p1578
(dp1579
g3
S'Neesham'
p1580
sg5
S'1 run'
p1581
sg7
S' Aaron'
p1582
sg9
S'\n147 kph  full toss on middle as he looks to swing it away. Gets an inside edge onto the back of his front knee and they scurry through for the single  </p>]'
p1583
ssS'47.3'
p1584
(dp1585
g3
S'Neesham'
p1586
sg5
g38
sg7
S' Mohammed Shami'
p1587
sg9
S'\ngets under this and sends it into the crowd over long-on. It was in the slot as Shami tries another slower ball. The bat did turn in his hand he swung hard and benefits  </p>]'
p1588
ssS'36.2'
p1589
(dp1590
g3
S'Taylor'
p1591
sg5
S'no run'
p1592
sg7
S' Kumar'
p1593
sg9
S'\nfalls just short of the bowler. Fullish on off and Taylor was into his defensive push a little early and the ball nearly lobbed back to Bhuvi.  </p>]'
p1594
ssS'47.5'
p1595
(dp1596
g3
S'Taylor'
p1597
sg5
g50
sg7
S' Mohammed Shami'
p1598
sg9
S'\nconsecutive hundreds for Taylor! It was short and on middle  he rocked back and pulled well in front of midwicket and collects a lovely boundary. Wellington stands up to applaud  </p>]'
p1599
ssS'47.2'
p1600
(dp1601
g3
S'Taylor'
p1602
sg5
S'1 leg bye'
p1603
sg7
S' Mohammed Shami'
p1604
sg9
S'\non a length as this is the slower ball  Offcutter on the pads as Taylor looks to work it behind square leg  but the ball dribbles away off his pads  </p>]'
p1605
ssS'47.6'
p1606
(dp1607
g3
S'Taylor'
p1608
sg5
g110
sg7
S' Mohammed Shami'
p1609
sg9
S"\nand finally India hold on to a catch. Dhawan at deep midwicket does a very good job as he picks up a skier. Slower ball outside off stump as he goes down on one knee and looks for that slog sweep again. He's mis-hit it though and Dhawan moves to his left and dives to pick up a good catch.  </p>]"
p1610
ssS'46.4'
p1611
(dp1612
g3
S'Taylor'
p1613
sg5
S'1 run'
p1614
sg7
S' Aaron'
p1615
sg9
S'\nvery full on middle as Taylor is forward and pushes to long-on  </p>]'
p1616
ssS'46.5'
p1617
(dp1618
g3
S'Neesham'
p1619
sg5
S'2 runs'
p1620
sg7
S' Aaron'
p1621
sg9
S'\nfull and wide outside off  Neesham makes no effort to move his feet as he throws his hands at it. Gets a thick inside edge past the keeper  </p>]'
p1622
ssS'46.6'
p1623
(dp1624
g3
S'Neesham'
p1625
sg5
S'1 leg bye'
p1626
sg7
S' Aaron'
p1627
sg9
S'\n147kph  pitched right up on leg stump as he was looking to clip it through square leg. Too slow on the shot as it runs away off his pads  </p>]'
p1628
ssS'46.1'
p1629
(dp1630
g3
S'Taylor'
p1631
sg5
S'no run'
p1632
sg7
S' Aaron'
p1633
sg9
S'\nright up there on middle and leg as he clips to midwicket.  </p>]'
p1634
ssS'46.2'
p1635
(dp1636
g3
S'Taylor'
p1637
sg5
S'1 run'
p1638
sg7
S' Aaron'
p1639
sg9
S"\n147kph  a bit overpitched on off stump as he drives through extra cover. Taylor wanted a couple  but it's not there  </p>]"
p1640
ssS'5.1'
p1641
(dp1642
g3
S'Ryder'
p1643
sg5
S'no run'
p1644
sg7
S' Kumar'
p1645
sg9
S'\ngood length ball on off stump as Ryder can only defend down the pitch  </p>]'
p1646
ssS'41.3'
p1647
(dp1648
g3
S'Taylor'
p1649
sg5
S'1 run'
p1650
sg7
S' Kohli'
p1651
sg9
S'\nbit more width on offer as he gets on the front foot and drives to deep cover  </p>]'
p1652
ssS'28.1'
p1653
(dp1654
g3
S'Taylor'
p1655
sg5
S'1 run'
p1656
sg7
S' Jadeja'
p1657
sg9
S'\nbit of turn outside off as Taylor moves back and across and opens the face to short third man  </p>]'
p1658
ssS'5.3'
p1659
(dp1660
g3
S'Ryder'
p1661
sg5
S'no run'
p1662
sg7
S' Kumar'
p1663
sg9
S'\nlength ball on off stump as he blocks solidly  </p>]'
p1664
ssS'41.1'
p1665
(dp1666
g3
S'Taylor'
p1667
sg5
S'1 run'
p1668
sg7
S' Kohli'
p1669
sg9
S'\ngood length ball just outside off as he cuts to deep point  </p>]'
p1670
ssS'29.5'
p1671
(dp1672
g3
S'Williamson'
p1673
sg5
S'1 run'
p1674
sg7
S' Kohli'
p1675
sg9
S'\ngoes down with this full ball wide of off stump and opens the face to pick up a single to short third man  </p>]'
p1676
ssS'5.4'
p1677
(dp1678
g3
S'Ryder'
p1679
sg5
S'1 run'
p1680
sg7
S' Kumar'
p1681
sg9
S"\nleans into a gorgeous drive through the covers. Dhawan is the man as he runs and dives to his left  but isn't able to cut the single. It was fullish with a bit of width outside off  </p>]"
p1682
ssS'29.6'
p1683
(dp1684
g3
S'Taylor'
p1685
sg5
S'no run'
p1686
sg7
S' Kohli'
p1687
sg9
S'\ncuts but it goes straight to point this time. Too short from Kohli again  </p>]'
p1688
ssS'29.1'
p1689
(dp1690
g3
S'Williamson'
p1691
sg5
S'no run'
p1692
sg7
S' Kohli'
p1693
sg9
S'\nfull and just outside off as he looks to drive through the covers. A little too early into the shot as he gets a bit of an edge down the ground  </p>]'
p1694
ssS'29.3'
p1695
(dp1696
g3
S'Taylor'
p1697
sg5
S'1 run'
p1698
sg7
S' Kohli'
p1699
sg9
S'\nback of a length and angled in on off stump as he dabs it to backward point for a quick single  </p>]'
p1700
ssS'29.2'
p1701
(dp1702
g3
S'Williamson'
p1703
sg5
S'1 run'
p1704
sg7
S' Kohli'
p1705
sg9
S"\nthere's his fifth fifty in five matches! Full on middle stump and he calmly pushes it to long-on and raises his bat. Becomes the second player to do that in a five-match series  </p>]"
p1706
ssS'15.1'
p1707
(dp1708
g3
S'Williamson'
p1709
sg5
S'1 run'
p1710
sg7
S' Ashwin'
p1711
sg9
S'\naround the wicket  chips down the track as he reaches the pitch of this tossed up offspinner between midwicket and mid-on  </p>]'
p1712
ssS'15.2'
p1713
(dp1714
g3
S'Taylor'
p1715
sg5
S'1 run'
p1716
sg7
S' Ashwin'
p1717
sg9
S'\npierces the same gap  only this is a different batsman and he plays from the crease  </p>]'
p1718
ssS'15.3'
p1719
(dp1720
g3
S'Williamson'
p1721
sg5
S'1 run'
p1722
sg7
S' Ashwin'
p1723
sg9
S'\nmoves down the track as he flights it outside off. Williamson opens the face as he carves it through point  </p>]'
p1724
ssS'11.611.611.611.611.611.611.611.611.611.6'
p1725
(dp1726
g3
S'Williamson'
p1727
sg5
g637
sg7
S' Kumar'
p1728
sg9
S"\ntries another bouncer and this time he isn't so lucky  wide called as this sails over the batsman's head outside off  </p>]"
p1729
ssS'5.6'
p1730
(dp1731
g3
S'Guptill'
p1732
sg5
S'no run'
p1733
sg7
S' Kumar'
p1734
sg9
S'\n132kph  oh  this time he brings the ball in off a good length. But Guptill judges it to be outside off and leaves it alone  </p>]'
p1735
ssS'15.6'
p1736
(dp1737
g3
S'Williamson'
p1738
sg5
S'1 run'
p1739
sg7
S' Ashwin'
p1740
sg9
S'\ntossed up outside off as he pushes into the covers and picks up another good single  </p>]'
p1741
ssS'44.3'
p1742
(dp1743
g3
S'Neesham'
p1744
sg5
S'1 run'
p1745
sg7
S' Aaron'
p1746
sg9
S"\n143kph  shortish on middle as Neesham goes back and pulls through square leg. Didn't get all of it though  </p>]"
p1747
ssS'49.4'
p1748
(dp1749
g3
S'Neesham'
p1750
sg5
S'1 run'
p1751
sg7
S' Mohammed Shami'
p1752
sg9
S'\nfull on middle and leg as he clips to deep midwicket all along the ground  </p>]'
p1753
ssS'48.2'
p1754
(dp1755
g3
S'Neesham'
p1756
sg5
S'1 run'
p1757
sg7
S' Kumar'
p1758
sg9
S'\nfull on middle and leg as he looks to power it straight down the ground  but gets an inside edge onto pad  </p>]'
p1759
ssS'48.3'
p1760
(dp1761
g3
S'Ronchi'
p1762
sg5
g50
sg7
S' Kumar'
p1763
sg9
S'\nlow full toss on off stump as he stretches forward and hits it dead straight for a boundary. Right off the middle  </p>]'
p1764
ssS'48.1'
p1765
(dp1766
g3
S'Ronchi'
p1767
sg5
S'1 run'
p1768
sg7
S' Kumar'
p1769
sg9
S'\nvery full outside off as he comes forward and gets it down to to long-on  </p>]'
p1770
ssS'48.6'
p1771
(dp1772
g3
S'Neesham'
p1773
sg5
S'1 run'
p1774
sg7
S' Kumar'
p1775
sg9
S'\nmoves his front foot leg side as this is in the blockhole as well  bit of width allows Neesham to punch to long-off  </p>]'
p1776
ssS'48.4'
p1777
(dp1778
g3
S'Ronchi'
p1779
sg5
g50
sg7
S' Kumar'
p1780
sg9
S"\nfull and just outside off but Ronchi's timed this brilliantly. Just missed the yorker and it had a bit of room outside off as he slaps it down to the long-off boundary  </p>]"
p1781
ssS'48.5'
p1782
(dp1783
g3
S'Ronchi'
p1784
sg5
S'1 run'
p1785
sg7
S' Kumar'
p1786
sg9
S'\ngets the yorker in this time as Ronchi can only dig it past the bowler on the off side  </p>]'
p1787
ssS'47.4'
p1788
(dp1789
g3
S'Neesham'
p1790
sg5
S'1 run'
p1791
sg7
S' Mohammed Shami'
p1792
sg9
S'\nyorker on middle and off  good reply as Neesham keeps it out. Good reply from the bowler  </p>]'
p1793
ss.