(dp0
S'33.5'
p1
(dp2
S'to'
p3
S'McCullum'
p4
sS'what'
p5
S'1 run'
p6
sS'from'
p7
S' Ashwin'
p8
sS'why'
p9
S'\nthis time worked past a diving silly mid-on down to long-on for one  </p>]'
p10
ssS'35.2'
p11
(dp12
g3
S'Taylor'
p13
sg5
S'no run'
p14
sg7
S' I Sharma'
p15
sg9
S'\nslower delivery on off  Ross Taylor gets forward to defend it back to Ishant  </p>]'
p16
ssS'35.3'
p17
(dp18
g3
S'Taylor'
p19
sg5
S'1 run'
p20
sg7
S' I Sharma'
p21
sg9
S'\nfuller one on the pads which is clipped to the fielder at deep square leg  </p>]'
p22
ssS'35.1'
p23
(dp24
g3
S'Taylor'
p25
sg5
S'no run'
p26
sg7
S' I Sharma'
p27
sg9
S'\nstarts off with a bouncer which is quite wide as Taylor ends up getting an under-edge to it  </p>]'
p28
ssS'35.6'
p29
(dp30
g3
S'McCullum'
p31
sg5
S'4 run'
p32
sg7
S' I Sharma'
p33
sg9
S'\nback of a length and McCullum dances down to club Ishant back over his head to the boundary. Excellent way to finish off the over by NZ  </p>]'
p34
ssS'35.4'
p35
(dp36
g3
S'McCullum'
p37
sg5
S'3 runs'
p38
sg7
S' I Sharma'
p39
sg9
S'\nlength just outside off which is driven towards long-on  but is reined in before the boundary  </p>]'
p40
ssS'35.5'
p41
(dp42
g3
S'Taylor'
p43
sg5
S'1 run'
p44
sg7
S' I Sharma'
p45
sg9
S'\nable to get an outside edge on this one which ends up being run down to third man  </p>]'
p46
ssS'7.2'
p47
(dp48
g3
S'Guptill'
p49
sg5
S'no run'
p50
sg7
S' Mohammed Shami'
p51
sg9
S'\npitched up on the pads as Guptill looks for the clip through midwicket  but finds silly mid-on  </p>]'
p52
ssS'6.6'
p53
(dp54
g3
S'Guptill'
p55
sg5
S'no run'
p56
sg7
S' Kumar'
p57
sg9
S'\nsolid on the back foot as this one is played back to the bowler  </p>]'
p58
ssS'12.1'
p59
(dp60
g3
S'Taylor'
p61
sg5
S'no run'
p62
sg7
S' Kumar'
p63
sg9
S'\nTaylor already commits to this short of a length delivery on middle and off  with the ball moving away at the last moment  </p>]'
p64
ssS'7.1'
p65
(dp66
g3
S'Williamson'
p67
sg5
S'1 run'
p68
sg7
S' Mohammed Shami'
p69
sg9
S'\ngets this shortish length on the leg side away behind square  </p>]'
p70
ssS'7.6'
p71
(dp72
g3
S'Taylor'
p73
sg5
S'no run'
p74
sg7
S' Mohammed Shami'
p75
sg9
S'\nslanting down the leg side  but just nipping back  as this one strikes the left thigh pad of Taylor  </p>]'
p76
ssS'12.6'
p77
(dp78
g3
S'Taylor'
p79
sg5
S'no run'
p80
sg7
S' Kumar'
p81
sg9
S'\nfull from Bhuvi as this is driven down to the man at silly mid-on  </p>]'
p82
ssS'6.1'
p83
(dp84
g3
S'Williamson'
p85
sg5
S'1 leg bye'
p86
sg7
S' Kumar'
p87
sg9
S'\npitched full and on the pads as this one swings away at the last moment as Williamson looks for the clip behind square. Ends up being called a leg-bye  </p>]'
p88
ssS'12.4'
p89
(dp90
g3
S'Williamson'
p91
sg5
S'2 runs'
p92
sg7
S' Kumar'
p93
sg9
S'\nWilliamson able to clip a delivery on middle and leg down to deep midwicket for a couple  </p>]'
p94
ssS'37.1'
p95
(dp96
g3
S'Anderson'
p97
sg5
S'no run'
p98
sg7
S' I Sharma'
p99
sg9
S'\nis quite content to let this back of a length delivery to go across him to the keeper  </p>]'
p100
ssS'37.2'
p101
(dp102
g3
S'Anderson'
p103
sg5
S'no run'
p104
sg7
S' I Sharma'
p105
sg9
S'\nthis time Ishant gets the ball to jag back off a similar line  which hits Anderson on the stomach  </p>]'
p106
ssS'37.3'
p107
(dp108
g3
S'Anderson'
p109
sg5
S'1 run'
p110
sg7
S' I Sharma'
p111
sg9
S'\nshort again and Anderson is onto this in a flash as he pulls this straight to deep square leg  </p>]'
p112
ssS'37.4'
p113
(dp114
g3
S'McCullum'
p115
sg5
S'1 run'
p116
sg7
S' I Sharma'
p117
sg9
S'\nfull and on the pads as this is driven down to long-on for a single  </p>]'
p118
ssS'37.5'
p119
(dp120
g3
S'Anderson'
p121
sg5
S'1 run'
p122
sg7
S' I Sharma'
p123
sg9
S'\nplays this one with soft hands to the off side to take a quick single  </p>]'
p124
ssS'6.46.46.46.46.46.46.46.46.46.4'
p125
(dp126
g3
S'Guptill'
p127
sg5
S'1 wide'
p128
sg7
S' Kumar'
p129
sg9
S'\nspeared down the leg side for yet another wide. Bhuvi has been uncharacteristically loose with his lines this afternoon  </p>]'
p130
ssS'10.1'
p131
(dp132
g3
S'Taylor'
p133
sg5
S'1 run'
p134
sg7
S' Kumar'
p135
sg9
S'\nangling down the pads as this is helped behind square towards fine leg  </p>]'
p136
ssS'10.3'
p137
(dp138
g3
S'Williamson'
p139
sg5
S'no run'
p140
sg7
S' Kumar'
p141
sg9
S'\npushes this off the back foot towards the fielder at silly mid-on  </p>]'
p142
ssS'10.2'
p143
(dp144
g3
S'Williamson'
p145
sg5
S'no run'
p146
sg7
S' Kumar'
p147
sg9
S'\nfuller one just outside off which nips away slightly upon pitching  </p>]'
p148
ssS'10.5'
p149
(dp150
g3
S'Williamson'
p151
sg5
S'1 run'
p152
sg7
S' Kumar'
p153
sg9
S'\nlooks to carve this behind square on the off side  and finds the man at third man  </p>]'
p154
ssS'10.4'
p155
(dp156
g3
S'Williamson'
p157
sg5
S'no run'
p158
sg7
S' Kumar'
p159
sg9
S'\nonce again defended off the back foot by Williamson  </p>]'
p160
ssS'10.6'
p161
(dp162
g3
S'Taylor'
p163
sg5
S'no run'
p164
sg7
S' Kumar'
p165
sg9
S'\nallows this length delivery outside off to shape away and be collected by the keeper  </p>]'
p166
ssS'7.67.67.67.67.67.67.67.67.67.6'
p167
(dp168
g3
S'Taylor'
p169
sg5
g128
sg7
S' Mohammed Shami'
p170
sg9
S'\nShami decides to show off his bouncer to the Napier crowd as this one rears appreciably to Dhoni  who has to jump quite high to get his hands on it. Called wide by the umpire  </p>]'
p171
ssS'43.1'
p172
(dp173
g3
S'Ronchi'
p174
sg5
g32
sg7
S' Mohammed Shami'
p175
sg9
S"\nlength on middle and leg which is hit over the bowler's head  and beats a diving long-off to the boundary  </p>]"
p176
ssS'33.3'
p177
(dp178
g3
S'McCullum'
p179
sg5
S'no run'
p180
sg7
S' Ashwin'
p181
sg9
S'\nheading down the pads as this is turned away to short backward square  </p>]'
p182
ssS'44.6'
p183
(dp184
g3
S'Ronchi'
p185
sg5
S'2 runs'
p186
sg7
S' Jadeja'
p187
sg9
S'\npitches this outside off as Ronchi picks the gap at deep extra-cover for a brace  </p>]'
p188
ssS'16.6'
p189
(dp190
g3
S'Taylor'
p191
sg5
S'no run'
p192
sg7
S' I Sharma'
p193
sg9
S'\nanother bouncer outside off  this time the slower ball  as Taylor is once again too early into his shot  </p>]'
p194
ssS'16.5'
p195
(dp196
g3
S'Taylor'
p197
sg5
S'no run'
p198
sg7
S' I Sharma'
p199
sg9
S'\nan enthusiastic appeal for LBW. The umpire is nonplussed.  </p>]'
p200
ssS'16.4'
p201
(dp202
g3
S'Taylor'
p203
sg5
S'no run'
p204
sg7
S' I Sharma'
p205
sg9
S'\nfires in a bouncer as Taylor is quickly into position to have a go  but is far too early into his shot as this one climbs over him to the keeper  </p>]'
p206
ssS'16.3'
p207
(dp208
g3
S'Williamson'
p209
sg5
S'1 run'
p210
sg7
S' I Sharma'
p211
sg9
S'\nshortish length outside off which is run down to third man  </p>]'
p212
ssS'16.2'
p213
(dp214
g3
S'Williamson'
p215
sg5
S'no run'
p216
sg7
S' I Sharma'
p217
sg9
S'\nWilliamson gets low to this fuller one just outside off as he looks to squirt this away behind point  </p>]'
p218
ssS'16.1'
p219
(dp220
g3
S'Williamson'
p221
sg5
g32
sg7
S' I Sharma'
p222
sg9
S'\nWilliamson able to guide this fuller one from Ishant straight to the deep midwicket boundary for four. Poor bowling again from Ishant  who is letting off the pressure established from the opening bowlers  </p>]'
p223
ssS'44.1'
p224
(dp225
g3
S'Ronchi'
p226
sg5
S'6 run'
p227
sg7
S' Jadeja'
p228
sg9
S'\nRonchi does not care that Jadeja was the No.1 ODI bowler at one point of time last year. He just slog sweeps the heck out of this flatter delivery  with the ball climbing so high that it almost likes he has given a catch in the deep  but just lands over the midwicket boundary  </p>]'
p229
ssS'35.335.335.335.335.335.335.335.335.335.3'
p230
(dp231
g3
S'Taylor'
p232
sg5
g128
sg7
S' I Sharma'
p233
sg9
S'\nspears this one down the pads as the umpire signals a wide  </p>]'
p234
ssS'43.2'
p235
(dp236
g3
S'Ronchi'
p237
sg5
S'1 run'
p238
sg7
S' Mohammed Shami'
p239
sg9
S'\nback of a length and pulled away to deep square leg  </p>]'
p240
ssS'43.4'
p241
(dp242
g3
S'Anderson'
p243
sg5
S'no run'
p244
sg7
S' Mohammed Shami'
p245
sg9
S'\nchanges tactics by going round the wicket  and almost gets Anderson to edge one behind to Dhoni  </p>]'
p246
ssS'14.4'
p247
(dp248
g3
S'Taylor'
p249
sg5
S'no run'
p250
sg7
S' I Sharma'
p251
sg9
S'\ndefended off the back foot by Taylor  </p>]'
p252
ssS'45.3'
p253
(dp254
g3
S'Anderson'
p255
sg5
S'1 run'
p256
sg7
S' Kumar'
p257
sg9
S'\nAnderson almost succeeds in dragging this fuller one just outside off onto his stumps  but is still able to eke out a run  </p>]'
p258
ssS'45.2'
p259
(dp260
g3
S'Ronchi'
p261
sg5
S'1 run'
p262
sg7
S' Kumar'
p263
sg9
S"\nfires in a yorker which has Bhuvi sprawled on the ground as this is hit uppishly back to the bowler  but Bhuvi can't quite reach it  </p>]"
p264
ssS'45.1'
p265
(dp266
g3
S'Anderson'
p267
sg5
S'1 run'
p268
sg7
S' Kumar'
p269
sg9
S'\nspears in a fuller one across Anderson as this is drilled down to the man at long-off  </p>]'
p270
ssS'45.6'
p271
(dp272
g3
S'Anderson'
p273
sg5
S'1 run'
p274
sg7
S' Kumar'
p275
sg9
S"\nlow full toss across the batsman as Anderson clubs him over extra-cover for a single. Ends Bhuvi's spell as well  </p>]"
p276
ssS'45.5'
p277
(dp278
g3
S'Anderson'
p279
sg5
S'2 runs'
p280
sg7
S' Kumar'
p281
sg9
S'\nfull and just outside off as he commits hard for the first run  before returning for the second when the fielder bobbles the ball at deep extra-cover  </p>]'
p282
ssS'45.4'
p283
(dp284
g3
S'Ronchi'
p285
sg5
S'1 run'
p286
sg7
S' Kumar'
p287
sg9
S'\ngets this one completely wrong as he offers a full toss which Ronchi fails to get away as this is hit straight to long-on  </p>]'
p288
ssS'26.6'
p289
(dp290
g3
S'Taylor'
p291
sg5
S'no run'
p292
sg7
S' Jadeja'
p293
sg9
S"\nRavindra Jadeja keeps it tight  Taylor drives  but can't beat a sliding cover. Just the single off that over - a good one for India  </p>]"
p294
ssS'26.4'
p295
(dp296
g3
S'Taylor'
p297
sg5
S'no run'
p298
sg7
S' Jadeja'
p299
sg9
S'\ndefended to the fielder at short cover  </p>]'
p300
ssS'26.5'
p301
(dp302
g3
S'Taylor'
p303
sg5
S'no run'
p304
sg7
S' Jadeja'
p305
sg9
S'\nlooks to guide this away from behind square on the off side  </p>]'
p306
ssS'26.2'
p307
(dp308
g3
S'Taylor'
p309
sg5
S'no run'
p310
sg7
S' Jadeja'
p311
sg9
S'\ndefended tentatively by Taylor on the back foot  </p>]'
p312
ssS'26.3'
p313
(dp314
g3
S'Taylor'
p315
sg5
S'no run'
p316
sg7
S' Jadeja'
p317
sg9
S'\ndriven straight back to the bowler by Taylor  </p>]'
p318
ssS'26.1'
p319
(dp320
g3
S'Williamson'
p321
sg5
S'1 run'
p322
sg7
S' Jadeja'
p323
sg9
S'\nshimmies down a touch before driving this fuller one down to long-off  </p>]'
p324
ssS'14.5'
p325
(dp326
g3
S'Taylor'
p327
sg5
g32
sg7
S' I Sharma'
p328
sg9
S'\nshuffles over to the off side to help this delivery angled down the pads to the fine leg boundary  </p>]'
p329
ssS'12.3'
p330
(dp331
g3
S'Taylor'
p332
sg5
S'1 run'
p333
sg7
S' Kumar'
p334
sg9
S'\ndefends this fuller one to the off side  </p>]'
p335
ssS'14.6'
p336
(dp337
g3
S'Taylor'
p338
sg5
S'no run'
p339
sg7
S' I Sharma'
p340
sg9
S'\nfull and heading down the pads as Taylor fails to get this away to fine leg. Taylor quite cross with himself  </p>]'
p341
ssS'14.1'
p342
(dp343
g3
S'Taylor'
p344
sg5
S'1 run'
p345
sg7
S' I Sharma'
p346
sg9
S'\nturns this away to the man at mid-on for one  </p>]'
p347
ssS'14.3'
p348
(dp349
g3
S'Williamson'
p350
sg5
S'1 run'
p351
sg7
S' I Sharma'
p352
sg9
S'\nable to run this one outside off to the fielder at third man  </p>]'
p353
ssS'12.2'
p354
(dp355
g3
S'Taylor'
p356
sg5
S'no run'
p357
sg7
S' Kumar'
p358
sg9
S'\nlooks to play this offering from Ishant with soft hands through point  but the fielder is up to the task  </p>]'
p359
ssS'2.12.12.12.12.12.12.12.12.12.1'
p360
(dp361
g3
S'Guptill'
p362
sg5
g128
sg7
S' Kumar'
p363
sg9
S'\nBhuvi still struggling to get his radar on track as he spears this one down the leg side  </p>]'
p364
ssS'24.5'
p365
(dp366
g3
S'Williamson'
p367
sg5
S'1 run'
p368
sg7
S' Jadeja'
p369
sg9
S'\ndrives this one just outside off to the fielder at point  </p>]'
p370
ssS'24.6'
p371
(dp372
g3
S'Taylor'
p373
sg5
S'no run'
p374
sg7
S' Jadeja'
p375
sg9
S'\nforward straight away to end this tidy over from Jadeja  </p>]'
p376
ssS'14.2'
p377
(dp378
g3
S'Williamson'
p379
sg5
g32
sg7
S' I Sharma'
p380
sg9
S'\ntoo full from Ishant as this is clipped away sweetly by Williamson  who looked quite assured as he played that one away to midwicket for four  </p>]'
p381
ssS'6.5'
p382
(dp383
g3
S'Guptill'
p384
sg5
S'no run'
p385
sg7
S' Kumar'
p386
sg9
S'\nonce again left alone just outside off by Guptill  </p>]'
p387
ssS'24.2'
p388
(dp389
g3
S'Williamson'
p390
sg5
S'1 run'
p391
sg7
S' Jadeja'
p392
sg9
S'\nthis time eased down to long-on for one  </p>]'
p393
ssS'24.3'
p394
(dp395
g3
S'Taylor'
p396
sg5
S'1 run'
p397
sg7
S' Jadeja'
p398
sg9
S'\nleans into  a drive down to cover  but the fielder is there to keep tabs on it  </p>]'
p399
ssS'22.2'
p400
(dp401
g3
S'Williamson'
p402
sg5
g32
sg7
S' Jadeja'
p403
sg9
S'\nshort and wide and Williamson punishes Jadeja with a square cut that just races to the boundary  </p>]'
p404
ssS'22.3'
p405
(dp406
g3
S'Williamson'
p407
sg5
S'1 run'
p408
sg7
S' Jadeja'
p409
sg9
S'\non the back foot to play this away to midwicket for a single  </p>]'
p410
ssS'49.5'
p411
(dp412
g3
S'Anderson'
p413
sg5
S'1 run'
p414
sg7
S' I Sharma'
p415
sg9
S'\nexcellent ball again as Anderson just squeezes this out in front of point for a single  </p>]'
p416
ssS'6.4'
p417
(dp418
g3
S'Guptill'
p419
sg5
S'no run'
p420
sg7
S' Kumar'
p421
sg9
S'\nlength just outside off which nibbles away slightly as Guptill shoulders arms  </p>]'
p422
ssS'22.6'
p423
(dp424
g3
S'Williamson'
p425
sg5
S'no run'
p426
sg7
S' Jadeja'
p427
sg9
S"\ndances down the track as he drills this back to Jadeja  who picks it up quickly before firing it back at the batsman's stumps  </p>]"
p428
ssS'49.2'
p429
(dp430
g3
S'Southee'
p431
sg5
S'no run'
p432
sg7
S' I Sharma'
p433
sg9
S'\nfires in a yorker that just misses leg stump as Southee backs away to hit him over the off side  </p>]'
p434
ssS'22.4'
p435
(dp436
g3
S'Taylor'
p437
sg5
S'no run'
p438
sg7
S' Jadeja'
p439
sg9
S'\ndriven straight back to Jadeja by Taylor  </p>]'
p440
ssS'22.5'
p441
(dp442
g3
S'Taylor'
p443
sg5
S'3 runs'
p444
sg7
S' Jadeja'
p445
sg9
S'\ncuts this away outside off  getting it just past point  as the pair are able to run three  </p>]'
p446
ssS'6.3'
p447
(dp448
g3
S'Guptill'
p449
sg5
S'no run'
p450
sg7
S' Kumar'
p451
sg9
S'\nright up in the blockhole as Guptill drives this one towards mid-off  but Jadeja is quick onto this one as he picks this up just to the right of him  </p>]'
p452
ssS'43.6'
p453
(dp454
g3
S'Anderson'
p455
sg5
g32
sg7
S' Mohammed Shami'
p456
sg9
S'\nfull and wide and clobbered by Anderson to a vacant extra-cover region for a boundary. Shami has simply been taken to the cleaners by Anderson. How many more can the southpaw get?  </p>]'
p457
ssS'6.2'
p458
(dp459
g3
S'Guptill'
p460
sg5
S'2 runs'
p461
sg7
S' Kumar'
p462
sg9
S'\ngets some prominent inswing just outside off as Guptill angles this away leg side for a brace  </p>]'
p463
ssS'7.4'
p464
(dp465
g3
S'Guptill'
p466
sg5
S'OUT'
p467
sg7
S' Mohammed Shami'
p468
sg9
S"\nShami shifts his line outside off and is rewarded as Guptill's patience wears thin. Looks to cut this away off the back foot  but ends up giving an outside edge which is caught at a comfortable height by Ashwin at first slip. Shami has now struck twice  and both New Zealand openers are back in the hut early on  </p>]"
p469
ssS'24.4'
p470
(dp471
g3
S'Williamson'
p472
sg5
S'no run'
p473
sg7
S' Jadeja'
p474
sg9
S'\ncuts this one away outside off  </p>]'
p475
ssS'34.5'
p476
(dp477
g3
S'McCullum'
p478
sg5
S'no run'
p479
sg7
S' Kumar'
p480
sg9
S'\nsolid in defence as he stays grounded on the back foot  </p>]'
p481
ssS'7.5'
p482
(dp483
g3
S'Taylor'
p484
sg5
S'no run'
p485
sg7
S' Mohammed Shami'
p486
sg9
S'\ngets forward right away to this length ball on and around off  </p>]'
p487
ssS'34.3'
p488
(dp489
g3
S'Taylor'
p490
sg5
S'1 run'
p491
sg7
S' Kumar'
p492
sg9
S'\nlate cuts this shortish length outside off to the man at third man  </p>]'
p493
ssS'34.2'
p494
(dp495
g3
S'Taylor'
p496
sg5
S'no run'
p497
sg7
S' Kumar'
p498
sg9
S'\npushed off the back foot to the fielder inside the circle  </p>]'
p499
ssS'34.1'
p500
(dp501
g3
S'McCullum'
p502
sg5
S'1 run'
p503
sg7
S' Kumar'
p504
sg9
S'\nshortish length just outside off which McCullum just gets away with a back foot cut  </p>]'
p505
ssS'24.1'
p506
(dp507
g3
S'Williamson'
p508
sg5
S'no run'
p509
sg7
S' Jadeja'
p510
sg9
S'\nflatter delivery drilled straight to silly mid-off  </p>]'
p511
ssS'3.6'
p512
(dp513
g3
S'Ryder'
p514
sg5
g467
sg7
S' Mohammed Shami'
p515
sg9
S'\nand Shami gets him with a fuller one on a similar line as Ryder is in two minds to play this one  looking to once again go for the pick-up flick  but was never really in position for it to be executed properly  </p>]'
p516
ssS'3.4'
p517
(dp518
g3
S'Ryder'
p519
sg5
S'no run'
p520
sg7
S' Mohammed Shami'
p521
sg9
S'\nonce again pushes this cautiously to the man at backward point  </p>]'
p522
ssS'3.5'
p523
(dp524
g3
S'Ryder'
p525
sg5
g32
sg7
S' Mohammed Shami'
p526
sg9
S'\nshort on leg stump as Ryder is in position to play his trademark pick-up flick  this time behind square leg  for a boundary  which fell just inches from the rope  </p>]'
p527
ssS'3.2'
p528
(dp529
g3
S'Ryder'
p530
sg5
S'no run'
p531
sg7
S' Mohammed Shami'
p532
sg9
S'\nRyder on the back foot as he looks to guide this back of a length delivery past the fielder at backward point  but the player makes a fine diving stop to his left to keep in control of it  </p>]'
p533
ssS'3.3'
p534
(dp535
g3
S'Ryder'
p536
sg5
S'no run'
p537
sg7
S' Mohammed Shami'
p538
sg9
S'\nRyder looking very tentative outside the off stump as Ryder looks to play this off the back foot with his hands  as opposed to stepping into the line of the ball  </p>]'
p539
ssS'42.3'
p540
(dp541
g3
S'Ronchi'
p542
sg5
S'1 run'
p543
sg7
S' Ashwin'
p544
sg9
S"\ndriven down to mid-off before setting off for a tight single as Jadeja  one of India's best fielders  is on to it quickly as he picks up and releases the throw  but is unlucky to miss the stumps as Ronchi was well short  </p>]"
p545
ssS'3.1'
p546
(dp547
g3
S'Ryder'
p548
sg5
S'no run'
p549
sg7
S' Mohammed Shami'
p550
sg9
S'\nRyder with a tentative forward prod to this shortish length slanting across him to the keeper  </p>]'
p551
ssS'2.3'
p552
(dp553
g3
S'Guptill'
p554
sg5
S'no run'
p555
sg7
S' Kumar'
p556
sg9
S'\ngets this to shape back into the batsman off a length  so there is definitely some movement on offer for the new-ball bowlers  </p>]'
p557
ssS'2.2'
p558
(dp559
g3
S'Guptill'
p560
sg5
S'no run'
p561
sg7
S' Kumar'
p562
sg9
S'\nshifts his line a bit wider outside off as this one swings considerably away. I really thought this one should have been called a wide  but the umpire is unmoved  </p>]'
p563
ssS'2.1'
p564
(dp565
g3
S'Guptill'
p566
sg5
S'no run'
p567
sg7
S' Kumar'
p568
sg9
S'\nthis time entices Guptill to have a play and a miss to this back of a length delivery outside off. Guptill was quick to draw the bat in  </p>]'
p569
ssS'36.6'
p570
(dp571
g3
S'Anderson'
p572
sg5
S'1 run'
p573
sg7
S' Mohammed Shami'
p574
sg9
S'\non the pads as this is helped off the hips for a single  </p>]'
p575
ssS'36.1'
p576
(dp577
g3
S'Taylor'
p578
sg5
S'no run'
p579
sg7
S' Mohammed Shami'
p580
sg9
S'\nstarts off with a shortish length outside off which is cut straight to point  </p>]'
p581
ssS'2.6'
p582
(dp583
g3
S'Guptill'
p584
sg5
S'no run'
p585
sg7
S' Kumar'
p586
sg9
S'\ncontent to let this one outside off  and shaping away slightly  to the keeper  </p>]'
p587
ssS'2.5'
p588
(dp589
g3
S'Guptill'
p590
sg5
S'no run'
p591
sg7
S' Kumar'
p592
sg9
S'\nshortish length just shaping away outside off as Guptill pushes this to the man at short cover  </p>]'
p593
ssS'2.4'
p594
(dp595
g3
S'Guptill'
p596
sg5
S'no run'
p597
sg7
S' Kumar'
p598
sg9
S'\nteases Guptill with a length delivery outside off as he looks to have a go at it  but is a bit early in his shot as this one is pushed through to the keeper  </p>]'
p599
ssS'20.1'
p600
(dp601
g3
S'Taylor'
p602
sg5
S'no run'
p603
sg7
S' Jadeja'
p604
sg9
S'\ndriven handsomely to short cover point  who is all over this like white on rice  </p>]'
p605
ssS'20.2'
p606
(dp607
g3
S'Taylor'
p608
sg5
S'1 run'
p609
sg7
S' Jadeja'
p610
sg9
S'\nthis time eased down to the man at long-on for one  </p>]'
p611
ssS'20.3'
p612
(dp613
g3
S'Williamson'
p614
sg5
S'1 run'
p615
sg7
S' Jadeja'
p616
sg9
S'\npushes this back of a length delivery off the back foot to the right of Jadeja  who is quick to get to it  </p>]'
p617
ssS'20.4'
p618
(dp619
g3
S'Taylor'
p620
sg5
S'no run'
p621
sg7
S' Jadeja'
p622
sg9
S'\ndefended tentatively to the off side by Taylor  </p>]'
p623
ssS'20.5'
p624
(dp625
g3
S'Taylor'
p626
sg5
S'1 run'
p627
sg7
S' Jadeja'
p628
sg9
S'\nthis time able to pierce the gap on the off side for a tight single  </p>]'
p629
ssS'20.6'
p630
(dp631
g3
S'Williamson'
p632
sg5
S'no run'
p633
sg7
S' Jadeja'
p634
sg9
S'\ndriven straight back to the bowler to end the over  </p>]'
p635
ssS'49.6'
p636
(dp637
g3
S'Southee'
p638
sg5
S'2 runs'
p639
sg7
S' I Sharma'
p640
sg9
S'\nfires in a yorker outside off which has Southee shuffling across his stumps before attempting a paddle-flick over fine leg  but this one goes higher than farther as backward square is able to run it down and stop it from getting to the boundary  </p>]'
p641
ssS'46.3'
p642
(dp643
g3
S'Anderson'
p644
sg5
S'2 runs'
p645
sg7
S' Mohammed Shami'
p646
sg9
S'\nslices this full and wide delivery outside off to the man at sweeper cover  which also brings up a quickfire <b>fifty</b> from Anderson  and that too off just 30 balls. Can he double it in the limited time we have?  </p>]'
p647
ssS'42.1'
p648
(dp649
g3
S'Anderson'
p650
sg5
S'1 run'
p651
sg7
S' Ashwin'
p652
sg9
S'\nAnderson pulls this shortish length delivery to the man at deep midwicket  </p>]'
p653
ssS'22.1'
p654
(dp655
g3
S'Williamson'
p656
sg5
S'no run'
p657
sg7
S' Jadeja'
p658
sg9
S'\ndefended on the front foot by Williamson to the off side  </p>]'
p659
ssS'37.6'
p660
(dp661
g3
S'McCullum'
p662
sg5
S'no run'
p663
sg7
S' I Sharma'
p664
sg9
S'\nlow full toss heading down the pads as McCullum flicks this one straight to square leg. Should have done better as this was a gimme ball  and the bowler is Ishant  after all  </p>]'
p665
ssS'49.3'
p666
(dp667
g3
S'Southee'
p668
sg5
S'1 run'
p669
sg7
S' I Sharma'
p670
sg9
S"\nfull again as Southee hits this straight to mid-on  who takes a shy at the non-striker's  but misses the stumps  </p>]"
p671
ssS'39.1'
p672
(dp673
g3
S'McCullum'
p674
sg5
S'1 run'
p675
sg7
S' I Sharma'
p676
sg9
S'\nlow full toss which is driven straight down to long-off. Looks disappointed as he should have done better with it  </p>]'
p677
ssS'21.5'
p678
(dp679
g3
S'Taylor'
p680
sg5
S'1 run'
p681
sg7
S' Ashwin'
p682
sg9
S'\nable to squirt this flatter delivery outside off to short third man for a quick-run single  </p>]'
p683
ssS'49.1'
p684
(dp685
g3
S'Anderson'
p686
sg5
S'1 run'
p687
sg7
S' I Sharma'
p688
sg9
S'\nthis fuller one is played away to the off side by Anderson for a single  </p>]'
p689
ssS'40.2'
p690
(dp691
g3
S'McCullum'
p692
sg5
S'1 run'
p693
sg7
S' Ashwin'
p694
sg9
S'\nquicker one heading down the pads as this is helped to the leg side for a single  </p>]'
p695
ssS'40.3'
p696
(dp697
g3
S'Anderson'
p698
sg5
g227
sg7
S' Ashwin'
p699
sg9
S'\nAnderson just hammers this length ball outside off from Ashwin as he hits this against the turn over midwicket for six  </p>]'
p700
ssS'40.1'
p701
(dp702
g3
S'McCullum'
p703
sg5
S'no run'
p704
sg7
S' Ashwin'
p705
sg9
S'\ngets forward straight away to defend this to the off side  </p>]'
p706
ssS'40.6'
p707
(dp708
g3
S'Anderson'
p709
sg5
S'1 run'
p710
sg7
S' Ashwin'
p711
sg9
S'\nhelped off the pads towards the leg side to retain the strike  </p>]'
p712
ssS'40.4'
p713
(dp714
g3
S'Anderson'
p715
sg5
S'1 run'
p716
sg7
S' Ashwin'
p717
sg9
S'\nthis time backs away to cut this down to sweeper cover for a single  </p>]'
p718
ssS'40.5'
p719
(dp720
g3
S'McCullum'
p721
sg5
S'1 run'
p722
sg7
S' Ashwin'
p723
sg9
S'\ndirects this one to the off side for a quick single  </p>]'
p724
ssS'27.3'
p725
(dp726
g3
S'Williamson'
p727
sg5
S'no run'
p728
sg7
S' Ashwin'
p729
sg9
S'\npunched off the back foot straight back to the bowler  </p>]'
p730
ssS'27.2'
p731
(dp732
g3
S'Taylor'
p733
sg5
S'1 run'
p734
sg7
S' Ashwin'
p735
sg9
S'\ndriven on the front foot down to long-on for one  </p>]'
p736
ssS'27.1'
p737
(dp738
g3
S'Williamson'
p739
sg5
S'1 run'
p740
sg7
S' Ashwin'
p741
sg9
S'\ndirected down to long-off for one  </p>]'
p742
ssS'21.6'
p743
(dp744
g3
S'Williamson'
p745
sg5
S'1 run'
p746
sg7
S' Ashwin'
p747
sg9
S'\nworked off the back foot to midwicket to finish the over  </p>]'
p748
ssS'43.3'
p749
(dp750
g3
S'Anderson'
p751
sg5
g227
sg7
S' Mohammed Shami'
p752
sg9
S'\nAnderson just crunches this back of a length delivery from Shami well over the square leg boundary to once again land another ball on the roof. That makes it twice today from Anderson. This is really ominous for India  </p>]'
p753
ssS'27.6'
p754
(dp755
g3
S'Taylor'
p756
sg5
S'1 run'
p757
sg7
S' Ashwin'
p758
sg9
S"\nnudged to the left of square leg and that's another single  </p>]"
p759
ssS'27.5'
p760
(dp761
g3
S'Taylor'
p762
sg5
S'no run'
p763
sg7
S' Ashwin'
p764
sg9
S'\nturned to the straightish midwicket fielder  </p>]'
p765
ssS'27.4'
p766
(dp767
g3
S'Williamson'
p768
sg5
S'1 run'
p769
sg7
S' Ashwin'
p770
sg9
S'\neased down to long-off for one  </p>]'
p771
ssS'49.249.249.249.249.249.249.249.249.249.2'
p772
(dp773
g3
S'Southee'
p774
sg5
g128
sg7
S' I Sharma'
p775
sg9
S'\nshort and well outside off as Ishant gets this horribly wrong  with the umpire confirming with the signal for a wide  </p>]'
p776
ssS'21.1'
p777
(dp778
g3
S'Taylor'
p779
sg5
S'no run'
p780
sg7
S' Ashwin'
p781
sg9
S'\nplayed tentatively to the leg side by Taylor  </p>]'
p782
ssS'42.2'
p783
(dp784
g3
S'Ronchi'
p785
sg5
S'no run'
p786
sg7
S' Ashwin'
p787
sg9
S'\ngets solidly behind the line of this latest offering from Ashwin  </p>]'
p788
ssS'12.5'
p789
(dp790
g3
S'Williamson'
p791
sg5
S'1 run'
p792
sg7
S' Kumar'
p793
sg9
S'\nWilliamson content to play this off the back foot toward backward point for a quick single  </p>]'
p794
ssS'42.4'
p795
(dp796
g3
S'Anderson'
p797
sg5
S'1 run'
p798
sg7
S' Ashwin'
p799
sg9
S'\nmanages to squeeze a run down to long-on  </p>]'
p800
ssS'30.4'
p801
(dp802
g3
S'Taylor'
p803
sg5
S'no run'
p804
sg7
S' Jadeja'
p805
sg9
S'\nflatter on off  chopped to point  </p>]'
p806
ssS'42.6'
p807
(dp808
g3
S'Ronchi'
p809
sg5
S'1 run'
p810
sg7
S' Ashwin'
p811
sg9
S'\nfinds a single with a hit down to deep square leg  </p>]'
p812
ssS'25.1'
p813
(dp814
g3
S'Williamson'
p815
sg5
S'1 run'
p816
sg7
S' Ashwin'
p817
sg9
S'\ndriven down to long-on with another easy single. Also brings up the <b>fifty</b> for Williamson  who has been terrific in setting up the foundation  </p>]'
p818
ssS'25.3'
p819
(dp820
g3
S'Williamson'
p821
sg5
S'1 run'
p822
sg7
S' Ashwin'
p823
sg9
S'\nturned away towards midwicket by Williamson for one  </p>]'
p824
ssS'25.2'
p825
(dp826
g3
S'Taylor'
p827
sg5
S'1 run'
p828
sg7
S' Ashwin'
p829
sg9
S'\ndrilled straight to the man at long-off  </p>]'
p830
ssS'25.5'
p831
(dp832
g3
S'Taylor'
p833
sg5
S'2 runs'
p834
sg7
S' Ashwin'
p835
sg9
S'\nopens the face to this one pitching well outside off as this is held to just two runs  </p>]'
p836
ssS'25.4'
p837
(dp838
g3
S'Taylor'
p839
sg5
S'no run'
p840
sg7
S' Ashwin'
p841
sg9
S'\nheading down the pads as Taylor looks to guide this past backward square leg  </p>]'
p842
ssS'25.6'
p843
(dp844
g3
S'Taylor'
p845
sg5
S'no run'
p846
sg7
S' Ashwin'
p847
sg9
S'\nturned away to the leg side to end another successful over for India  </p>]'
p848
ssS'21.2'
p849
(dp850
g3
S'Taylor'
p851
sg5
S'1 run'
p852
sg7
S' Ashwin'
p853
sg9
S'\nheading down the pads as this is clipped to square leg for one  </p>]'
p854
ssS'28.6'
p855
(dp856
g3
S'Williamson'
p857
sg5
S'1 run'
p858
sg7
S' Kohli'
p859
sg9
S'\ncracked to sweeper cover off the back foot  </p>]'
p860
ssS'23.6'
p861
(dp862
g3
S'Williamson'
p863
sg5
S'1 run'
p864
sg7
S' Ashwin'
p865
sg9
S'\nhelped down once more to long-on  which means he will retain strike for the next over  </p>]'
p866
ssS'23.5'
p867
(dp868
g3
S'Taylor'
p869
sg5
S'1 run'
p870
sg7
S' Ashwin'
p871
sg9
S'\neased down to long-on for a single  </p>]'
p872
ssS'23.4'
p873
(dp874
g3
S'Taylor'
p875
sg5
S'no run'
p876
sg7
S' Ashwin'
p877
sg9
S'\nfails to get away this delivery to the leg side  </p>]'
p878
ssS'23.3'
p879
(dp880
g3
S'Taylor'
p881
sg5
S'2 runs'
p882
sg7
S' Ashwin'
p883
sg9
S'\nable to get this very fine outside off as this is finessed towards the third man boundary  but is reined in by the fielders  </p>]'
p884
ssS'23.2'
p885
(dp886
g3
S'Taylor'
p887
sg5
S'no run'
p888
sg7
S' Ashwin'
p889
sg9
S'\ndriven straight back to Ashwin by Taylor  </p>]'
p890
ssS'23.1'
p891
(dp892
g3
S'Taylor'
p893
sg5
S'no run'
p894
sg7
S' Ashwin'
p895
sg9
S'\ndefends this one solidly to the off side  </p>]'
p896
ssS'32.1'
p897
(dp898
g3
S'Taylor'
p899
sg5
S'1 run'
p900
sg7
S' Jadeja'
p901
sg9
S'\ndriven past a diving short cover point to bring up his <b>25th ODI fifty</b>. Well played Rossy  New Zealand will want you to keep going  </p>]'
p902
ssS'32.3'
p903
(dp904
g3
S'Williamson'
p905
sg5
S'no run'
p906
sg7
S' Jadeja'
p907
sg9
S'\nthis time cut away a bit more square  </p>]'
p908
ssS'32.2'
p909
(dp910
g3
S'Williamson'
p911
sg5
g32
sg7
S' Jadeja'
p912
sg9
S'\nafforded width outside off and is punished with a late cut through the gap fora boundary  </p>]'
p913
ssS'32.5'
p914
(dp915
g3
S'Taylor'
p916
sg5
S'1 run'
p917
sg7
S' Jadeja'
p918
sg9
S'\nruns this one down to short third man for a single  </p>]'
p919
ssS'32.4'
p920
(dp921
g3
S'Williamson'
p922
sg5
S'1 run'
p923
sg7
S' Jadeja'
p924
sg9
S'\neased down to long-on for an easy single  </p>]'
p925
ssS'2.42.42.42.42.42.42.42.42.42.4'
p926
(dp927
g3
S'Guptill'
p928
sg5
g128
sg7
S' Kumar'
p929
sg9
S'\nonce again fires one down the leg side as Bhuvi has been largely inconsistent so far. Was looking to get this to nip back in to the right-hander  </p>]'
p930
ssS'32.6'
p931
(dp932
g3
S'Williamson'
p933
sg5
g467
sg7
S' Jadeja'
p934
sg9
S'\nand all that good work comes undone as this is lofted straight to Rahane  who is stationed at silly mid-off. Williamson deserved to go for a centruy  but it looks like he had a lapse of concentration there  </p>]'
p935
ssS'33.4'
p936
(dp937
g3
S'McCullum'
p938
sg5
S'no run'
p939
sg7
S' Ashwin'
p940
sg9
S'\non the front foot to this flighted one from Ashwin  </p>]'
p941
ssS'19.4'
p942
(dp943
g3
S'Taylor'
p944
sg5
S'1 run'
p945
sg7
S' Ashwin'
p946
sg9
S'\nlength ball driven down to long-off for a single  </p>]'
p947
ssS'33.6'
p948
(dp949
g3
S'Taylor'
p950
sg5
S'no run'
p951
sg7
S' Ashwin'
p952
sg9
S'\nends the over by playing this one back to Ashwin  </p>]'
p953
ssS'33.1'
p954
(dp955
g3
S'Taylor'
p956
sg5
S'no run'
p957
sg7
S' Ashwin'
p958
sg9
S'\ngets forward to this flatter one from Ashwin  </p>]'
p959
ssS'33.2'
p960
(dp961
g3
S'Taylor'
p962
sg5
S'1 run'
p963
sg7
S' Ashwin'
p964
sg9
S'\nonce again driven back to the bowler  beating his outstretched left hand  </p>]'
p965
ssS'19.5'
p966
(dp967
g3
S'Williamson'
p968
sg5
S'no run'
p969
sg7
S' Ashwin'
p970
sg9
S'\ndefended solidly by Williamson to the off side  </p>]'
p971
ssS'19.6'
p972
(dp973
g3
S'Williamson'
p974
sg5
S'no run'
p975
sg7
S' Ashwin'
p976
sg9
S'\ndefended straight to the man at short cover point to bring the over to an end  </p>]'
p977
ssS'29.4'
p978
(dp979
g3
S'Williamson'
p980
sg5
S'1 run'
p981
sg7
S' Ashwin'
p982
sg9
S'\neased to deep extra cover  two was the call and two it will be eventually  </p>]'
p983
ssS'39.6'
p984
(dp985
g3
S'McCullum'
p986
sg5
S'1 run'
p987
sg7
S' I Sharma'
p988
sg9
S'\ngets forward to play this length delivery with soft hands to the off side  and is able to pinch a single in the process  </p>]'
p989
ssS'39.4'
p990
(dp991
g3
S'McCullum'
p992
sg5
g32
sg7
S' I Sharma'
p993
sg9
S'\nIshant struggling to land a good line as McCullum sacheys to the leg side to loft this low full toss heading down the leg side over long-off for a boundary  </p>]'
p994
ssS'39.5'
p995
(dp996
g3
S'McCullum'
p997
sg5
g32
sg7
S' I Sharma'
p998
sg9
S'\nthis time straying on the pads as McCullum works this past backward square  who put in a dive in vain  as this one travels to the fine leg rope  </p>]'
p999
ssS'39.2'
p1000
(dp1001
g3
S'Anderson'
p1002
sg5
g227
sg7
S' I Sharma'
p1003
sg9
S'\nwhere did that come from? Anderson just sent an Ishant back of a length delivery way over the square leg boundary for a huge six. This one was struck so sweetly that it just seemed to climb higher and higher in the air  before landing on the roof. Monstrous hit from Anderson. Ishant is thinking "Oh no  not again"  </p>]'
p1004
ssS'39.3'
p1005
(dp1006
g3
S'Anderson'
p1007
sg5
S'1 run'
p1008
sg7
S' I Sharma'
p1009
sg9
S'\nthis time pitches it up further as this one is worked away behind square on the leg side  </p>]'
p1010
ssS'19.1'
p1011
(dp1012
g3
S'Taylor'
p1013
sg5
S'1 run'
p1014
sg7
S' Ashwin'
p1015
sg9
S'\nleg side delivery which is helped to fine leg by Taylor  </p>]'
p1016
ssS'8.1'
p1017
(dp1018
g3
S'Williamson'
p1019
sg5
S'no run'
p1020
sg7
S' Kumar'
p1021
sg9
S'\ncontent to leave this back of a length delivery outside off to the keeper  </p>]'
p1022
ssS'21.4'
p1023
(dp1024
g3
S'Williamson'
p1025
sg5
S'1 run'
p1026
sg7
S' Ashwin'
p1027
sg9
S'\neased off the pads down to midwicket for one  </p>]'
p1028
ssS'8.3'
p1029
(dp1030
g3
S'Williamson'
p1031
sg5
S'1 run'
p1032
sg7
S' Kumar'
p1033
sg9
S'\nonce again angling in  this time of a back of a length  as Williamson steals a run to the leg side  </p>]'
p1034
ssS'8.2'
p1035
(dp1036
g3
S'Williamson'
p1037
sg5
S'no run'
p1038
sg7
S' Kumar'
p1039
sg9
S'\nshaping in from a fuller length just outside off as Williamson defends on the front foot  </p>]'
p1040
ssS'8.5'
p1041
(dp1042
g3
S'Williamson'
p1043
sg5
S'no run'
p1044
sg7
S' Kumar'
p1045
sg9
S'\nfuller one just outside off which is left for the keeper to collect  </p>]'
p1046
ssS'8.4'
p1047
(dp1048
g3
S'Taylor'
p1049
sg5
S'1 run'
p1050
sg7
S' Kumar'
p1051
sg9
S'\nangling down the pads as Taylor gets away with a clip behind to deep fine leg  </p>]'
p1052
ssS'21.3'
p1053
(dp1054
g3
S'Williamson'
p1055
sg5
S'no run'
p1056
sg7
S' Ashwin'
p1057
sg9
S'\ndisplays his front foot defence with the straightest of bats  </p>]'
p1058
ssS'8.6'
p1059
(dp1060
g3
S'Williamson'
p1061
sg5
S'no run'
p1062
sg7
S' Kumar'
p1063
sg9
S'\nplays this one with the most minimal of footwork outside off behind square  but backward point is equal to the task  </p>]'
p1064
ssS'19.3'
p1065
(dp1066
g3
S'Williamson'
p1067
sg5
S'1 run'
p1068
sg7
S' Ashwin'
p1069
sg9
S'\npunches this off the back foot to sweeper cover for one  </p>]'
p1070
ssS'44.4'
p1071
(dp1072
g3
S'Ronchi'
p1073
sg5
g227
sg7
S' Jadeja'
p1074
sg9
S'\nthis time there is no doubt about this clearing the ropes as Ronchi just gets down on one knee before depositing Jadeja high into the midwicket stand  </p>]'
p1075
ssS'42.5'
p1076
(dp1077
g3
S'Ronchi'
p1078
sg5
S'no run'
p1079
sg7
S' Ashwin'
p1080
sg9
S'\nlooks to cut away this shortish one from Ashwin  but ends up hitting it back towards Dhoni on the bounce  </p>]'
p1081
ssS'30.3'
p1082
(dp1083
g3
S'Williamson'
p1084
sg5
S'1 run'
p1085
sg7
S' Jadeja'
p1086
sg9
S'\nfloated outside off  driven to sweeper cover  </p>]'
p1087
ssS'44.5'
p1088
(dp1089
g3
S'Ronchi'
p1090
sg5
g32
sg7
S' Jadeja'
p1091
sg9
S'\nthis time flatter from Jadeja as Ronchi hammers him back into the same region  but this one not quite travelling over the ropes  </p>]'
p1092
ssS'34.6'
p1093
(dp1094
g3
S'McCullum'
p1095
sg5
g32
sg7
S' Kumar'
p1096
sg9
S'\njust a hint of with as McCullum pounces on this one quickly to cut this away behind point for four  </p>]'
p1097
ssS'9.4'
p1098
(dp1099
g3
S'Williamson'
p1100
sg5
S'no run'
p1101
sg7
S' I Sharma'
p1102
sg9
S'\nWilliamson on the front foot straight away to this fuller one from Ishant  </p>]'
p1103
ssS'9.5'
p1104
(dp1105
g3
S'Williamson'
p1106
sg5
S'no run'
p1107
sg7
S' I Sharma'
p1108
sg9
S'\nonce again defended on the front foot by Taylor  </p>]'
p1109
ssS'9.6'
p1110
(dp1111
g3
S'Williamson'
p1112
sg5
S'no run'
p1113
sg7
S' I Sharma'
p1114
sg9
S'\nlength outside off which nibbles away as Williamson shoulders arms  </p>]'
p1115
ssS'9.1'
p1116
(dp1117
g3
S'Taylor'
p1118
sg5
S'no run'
p1119
sg7
S' I Sharma'
p1120
sg9
S'\nbegins with a shortish length outside off as Taylor looks to cut it away  </p>]'
p1121
ssS'9.2'
p1122
(dp1123
g3
S'Taylor'
p1124
sg5
S'2 runs'
p1125
sg7
S' I Sharma'
p1126
sg9
S'\nguilty of going down the pads as Taylor just eases this down to deep square leg  </p>]'
p1127
ssS'9.3'
p1128
(dp1129
g3
S'Taylor'
p1130
sg5
S'1 run'
p1131
sg7
S' I Sharma'
p1132
sg9
S'\ncuts this back of a length delivery down to the man at deep point  </p>]'
p1133
ssS'34.4'
p1134
(dp1135
g3
S'McCullum'
p1136
sg5
S'no run'
p1137
sg7
S' Kumar'
p1138
sg9
S'\npushed off the back foot straight to point  </p>]'
p1139
ssS'41.6'
p1140
(dp1141
g3
S'Ronchi'
p1142
sg5
S'no run'
p1143
sg7
S' Kumar'
p1144
sg9
S'\nonce again defended by Ronchi to end a successful over for India  </p>]'
p1145
ssS'41.5'
p1146
(dp1147
g3
S'Ronchi'
p1148
sg5
S'no run'
p1149
sg7
S' Kumar'
p1150
sg9
S'\nback of a length and defended by Ronchi to the off side  </p>]'
p1151
ssS'41.4'
p1152
(dp1153
g3
S'McCullum'
p1154
sg5
g467
sg7
S' Kumar'
p1155
sg9
S"\nDhoni takes a blinder behind the stumps as he is able to hold on to an edge off McCullum's bat while standing up to the stumps to deter the batsman from going down the pitch. Excellent work by the captain as Bhuvneshwar celebrates some success finally  </p>]"
p1156
ssS'41.3'
p1157
(dp1158
g3
S'McCullum'
p1159
sg5
S'no run'
p1160
sg7
S' Kumar'
p1161
sg9
S'\nadvances down the track a bit as this is defended back to the bowler  </p>]'
p1162
ssS'41.2'
p1163
(dp1164
g3
S'McCullum'
p1165
sg5
S'no run'
p1166
sg7
S' Kumar'
p1167
sg9
S'\ndefends this one on the front foot towards backward point  </p>]'
p1168
ssS'30.1'
p1169
(dp1170
g3
S'Taylor'
p1171
sg5
S'2 runs'
p1172
sg7
S' Jadeja'
p1173
sg9
S'\na risk-free single to deep point  </p>]'
p1174
ssS'30.6'
p1175
(dp1176
g3
S'Williamson'
p1177
sg5
S'1 run  </p>]'
p1178
sg7
S' Jadeja'
p1179
sg9
S''
p1180
ssS'44.2'
p1181
(dp1182
g3
S'Ronchi'
p1183
sg5
S'1 run'
p1184
sg7
S' Jadeja'
p1185
sg9
S'\nslower one outside off which is carved to the fielder at sweeper cover  </p>]'
p1186
ssS'43.5'
p1187
(dp1188
g3
S'Anderson'
p1189
sg5
g32
sg7
S' Mohammed Shami'
p1190
sg9
S'\nfires in a bouncer going down the leg side as Anderson gets a whiff on it which carries well over the keeper to the fine leg boundary. Looks like it may have been a top-edge there  </p>]'
p1191
ssS'28.1'
p1192
(dp1193
g3
S'Taylor'
p1194
sg5
S'1 run'
p1195
sg7
S' Kohli'
p1196
sg9
S'\nswinging in from outside off as this is eased to the fielder at mid-off  </p>]'
p1197
ssS'28.2'
p1198
(dp1199
g3
S'Williamson'
p1200
sg5
S'no run'
p1201
sg7
S' Kohli'
p1202
sg9
S'\ntries to squirt this away past backward point  </p>]'
p1203
ssS'28.3'
p1204
(dp1205
g3
S'Williamson'
p1206
sg5
S'no run'
p1207
sg7
S' Kohli'
p1208
sg9
S'\nclipped off the pads for a single  </p>]'
p1209
ssS'28.4'
p1210
(dp1211
g3
S'Williamson'
p1212
sg5
S'1 run'
p1213
sg7
S' Kohli'
p1214
sg9
S'\nanother single  this time down to deep extra-cover  </p>]'
p1215
ssS'28.5'
p1216
(dp1217
g3
S'Taylor'
p1218
sg5
S'1 run'
p1219
sg7
S' Kohli'
p1220
sg9
S'\npushes this one down to long-on for yet another easy.single  </p>]'
p1221
ssS'7.3'
p1222
(dp1223
g3
S'Guptill'
p1224
sg5
S'no run'
p1225
sg7
S' Mohammed Shami'
p1226
sg9
S'\nlooks to work away this leg side delivery off a back of a length  </p>]'
p1227
ssS'15.5'
p1228
(dp1229
g3
S'Williamson'
p1230
sg5
S'3 runs'
p1231
sg7
S' Jadeja'
p1232
sg9
S'\nonce again decides to employ the lofted shot through midwicket as this time Kumar is able to prevent it from hitting the rope  and fires in a throw which has the NZ duo running hard to make their respective ends. Jadeja fires a throw to the other end  but the dive from Taylor was successful  </p>]'
p1233
ssS'19.2'
p1234
(dp1235
g3
S'Williamson'
p1236
sg5
g32
sg7
S' Ashwin'
p1237
sg9
S'\nshimmies down before lofting Ashwin gracefully over long-off for a wonderfully timed six. Just pure class and elegance from Williamson  </p>]'
p1238
ssS'38.2'
p1239
(dp1240
g3
S'Anderson'
p1241
sg5
S'1 run'
p1242
sg7
S' Mohammed Shami'
p1243
sg9
S'\non the pads as this is helped off the hips by Anderson towards square leg  </p>]'
p1244
ssS'31.6'
p1245
(dp1246
g3
S'Taylor'
p1247
sg5
S'1 run'
p1248
sg7
S' Kohli'
p1249
sg9
S'\njabbed to the off side by Taylor towards the cover region  </p>]'
p1250
ssS'38.4'
p1251
(dp1252
g3
S'McCullum'
p1253
sg5
S'no run'
p1254
sg7
S' Mohammed Shami'
p1255
sg9
S'\ntests him with a bouncer which rises appreciably over McCullum  who looked to wallop this out of Napier  </p>]'
p1256
ssS'31.4'
p1257
(dp1258
g3
S'Williamson'
p1259
sg5
S'no run'
p1260
sg7
S' Kohli'
p1261
sg9
S'\nfails to get this one going down the pads past short backward square  </p>]'
p1262
ssS'31.5'
p1263
(dp1264
g3
S'Williamson'
p1265
sg5
S'1 run'
p1266
sg7
S' Kohli'
p1267
sg9
S'\nslaps this one on one knee down to long-on for a single  </p>]'
p1268
ssS'31.2'
p1269
(dp1270
g3
S'Williamson'
p1271
sg5
S'1 run'
p1272
sg7
S' Kohli'
p1273
sg9
S'\nslaps this fuller one away to the leg side which is hit at quite a rate of knots  </p>]'
p1274
ssS'31.3'
p1275
(dp1276
g3
S'Taylor'
p1277
sg5
S'1 run'
p1278
sg7
S' Kohli'
p1279
sg9
S'\ndrilled down to long-on to the fielder  </p>]'
p1280
ssS'31.1'
p1281
(dp1282
g3
S'Williamson'
p1283
sg5
S'no run'
p1284
sg7
S' Kohli'
p1285
sg9
S'\ngets forward to this one pitched outside off  </p>]'
p1286
ssS'18.1'
p1287
(dp1288
g3
S'Taylor'
p1289
sg5
S'1 run'
p1290
sg7
S' Kohli'
p1291
sg9
S'\nfires one wide outside off as this is driven by Williamson towards the covers  </p>]'
p1292
ssS'18.3'
p1293
(dp1294
g3
S'Taylor'
p1295
sg5
S'1 run'
p1296
sg7
S' Kohli'
p1297
sg9
S'\npushed to the left of the bowler down to the man at long-off for one  </p>]'
p1298
ssS'18.2'
p1299
(dp1300
g3
S'Williamson'
p1301
sg5
S'1 run'
p1302
sg7
S' Kohli'
p1303
sg9
S'\nfuller one which is drilled straight to the man at long-off  </p>]'
p1304
ssS'18.5'
p1305
(dp1306
g3
S'Williamson'
p1307
sg5
S'1 run'
p1308
sg7
S' Kohli'
p1309
sg9
S'\nshortish and just outside off  Williamson plays a flat batted pull to long on. That notches up the 50 of the partnership between Taylor and Williamson  </p>]'
p1310
ssS'18.4'
p1311
(dp1312
g3
S'Williamson'
p1313
sg5
S'no run'
p1314
sg7
S' Kohli'
p1315
sg9
S'\nshortish length outside off which is cut away straight to backward point  </p>]'
p1316
ssS'18.6'
p1317
(dp1318
g3
S'Taylor'
p1319
sg5
S'1 run'
p1320
sg7
S' Kohli'
p1321
sg9
S'\nlength ball homing in on middle  Taylor milks it to mid wicket to retain strike  </p>]'
p1322
ssS'1.4'
p1323
(dp1324
g3
S'Ryder'
p1325
sg5
g32
sg7
S' Mohammed Shami'
p1326
sg9
S'\nthis time decides to slant the ball across Ryder  who sees this early as he slaps this away through point off the back foot to find the square boundary  </p>]'
p1327
ssS'1.5'
p1328
(dp1329
g3
S'Ryder'
p1330
sg5
S'no run'
p1331
sg7
S' Mohammed Shami'
p1332
sg9
S'\nmuch better line and length as this one is pitched just around middle and off  with that little hint of away movement after the tentative forward prod from Ryder  </p>]'
p1333
ssS'1.6'
p1334
(dp1335
g3
S'Ryder'
p1336
sg5
S'no run'
p1337
sg7
S' Mohammed Shami'
p1338
sg9
S'\nsimilar line to the delivery before as Shami gets this to rise off a shortish length to the keeper  </p>]'
p1339
ssS'1.1'
p1340
(dp1341
g3
S'Guptill'
p1342
sg5
S'1 run'
p1343
sg7
S' Mohammed Shami'
p1344
sg9
S'\nprods forward slightly on the back foot to play this one to the leg side for a quick single  </p>]'
p1345
ssS'1.2'
p1346
(dp1347
g3
S'Ryder'
p1348
sg5
S'no run'
p1349
sg7
S' Mohammed Shami'
p1350
sg9
S'\npitches this a bit further up on the leg stump as this is played away to the leg side  </p>]'
p1351
ssS'1.3'
p1352
(dp1353
g3
S'Ryder'
p1354
sg5
g32
sg7
S' Mohammed Shami'
p1355
sg9
S"\nShami has not got his lines quite right as this leg side delivery is helped down to the man at deep fine leg  but beats the fielder to the boundary  despite the fielder's dive  </p>]"
p1356
ssS'0.1'
p1357
(dp1358
g3
S'Guptill'
p1359
sg5
S'1 run'
p1360
sg7
S' Kumar'
p1361
sg9
S'\nand Guptill is underway as this one moves a bit to the leg side off a back of a length  as Guptill looks to work this away leg side for a single  but ends up being called a leg-bye by the umpire  </p>]'
p1362
ssS'30.2'
p1363
(dp1364
g3
S'Taylor'
p1365
sg5
S'1 run'
p1366
sg7
S' Jadeja'
p1367
sg9
S'\nsoftly dropped in front of cover and a quick single taken  </p>]'
p1368
ssS'0.3'
p1369
(dp1370
g3
S'Ryder'
p1371
sg5
S'no run'
p1372
sg7
S' Kumar'
p1373
sg9
S'\nonce again behind the line as this is played just to the left of the bowler  </p>]'
p1374
ssS'0.2'
p1375
(dp1376
g3
S'Ryder'
p1377
sg5
S'no run'
p1378
sg7
S' Kumar'
p1379
sg9
S'\nRyder gets solidly behind the line of this back of a length offering from Bhuvi  </p>]'
p1380
ssS'0.5'
p1381
(dp1382
g3
S'Ryder'
p1383
sg5
S'no run'
p1384
sg7
S' Kumar'
p1385
sg9
S'\nRyder fixed at the crease as he pushes this shortish length on middle and off to the off side  </p>]'
p1386
ssS'0.4'
p1387
(dp1388
g3
S'Ryder'
p1389
sg5
S'no run'
p1390
sg7
S' Kumar'
p1391
sg9
S'\ngets this one to swing in from a shortish length as Ryder fends this away to the leg side  </p>]'
p1392
ssS'30.5'
p1393
(dp1394
g3
S'Taylor'
p1395
sg5
S'1 run'
p1396
sg7
S' Jadeja'
p1397
sg9
S'\ndriven past a diving cover  down to long-off  </p>]'
p1398
ssS'0.6'
p1399
(dp1400
g3
S'Ryder'
p1401
sg5
g227
sg7
S' Kumar'
p1402
sg9
S"\nand it doesn't take long for Ryder to tee off as Bhuvi has been a tad predictable with this line and length. Ryder is able to flick this with that beautiful pick-up shot of his over square leg for the first six of the morning  </p>]"
p1403
ssS'38.3'
p1404
(dp1405
g3
S'McCullum'
p1406
sg5
S'no run'
p1407
sg7
S' Mohammed Shami'
p1408
sg9
S'\nfuller length just outside off as Brendon tries to force this away to the off side  </p>]'
p1409
ssS'36.5'
p1410
(dp1411
g3
S'McCullum'
p1412
sg5
S'1 run'
p1413
sg7
S' Mohammed Shami'
p1414
sg9
S'\nback of a length which is played with soft hands to the off side for another tight single  </p>]'
p1415
ssS'38.1'
p1416
(dp1417
g3
S'Anderson'
p1418
sg5
g32
sg7
S' Mohammed Shami'
p1419
sg9
S'\nlength on middle which is sent up and over by Anderson to the long-off boundary with the cleanest of strikes  </p>]'
p1420
ssS'38.6'
p1421
(dp1422
g3
S'Anderson'
p1423
sg5
S'no run'
p1424
sg7
S' Mohammed Shami'
p1425
sg9
S'\npushed to the fielder at short cover point to end the over  </p>]'
p1426
ssS'38.5'
p1427
(dp1428
g3
S'McCullum'
p1429
sg5
S'3 runs'
p1430
sg7
S' Mohammed Shami'
p1431
sg9
S"\nable to slap away this back of a length ball through extra-cover  but doesn't time it quite right  but still manages to pick up three valuable runs  </p>]"
p1432
ssS'36.4'
p1433
(dp1434
g3
S'Anderson'
p1435
sg5
S'1 run'
p1436
sg7
S' Mohammed Shami'
p1437
sg9
S'\ndefends this one to the leg side and takes off for a quick single  </p>]'
p1438
ssS'13.6'
p1439
(dp1440
g3
S'Williamson'
p1441
sg5
S'no run'
p1442
sg7
S' Jadeja'
p1443
sg9
S"\nuses his feet but can't quite get to the pitch of it as this one ends up being played to the leg side  </p>]"
p1444
ssS'13.4'
p1445
(dp1446
g3
S'Taylor'
p1447
sg5
S'1 run'
p1448
sg7
S' Jadeja'
p1449
sg9
S'\ndriven towards the off side by Taylor for a single  </p>]'
p1450
ssS'13.5'
p1451
(dp1452
g3
S'Williamson'
p1453
sg5
S'no run'
p1454
sg7
S' Jadeja'
p1455
sg9
S'\npushes this back of a length delivery to the right of Jadeja  who is quick on it  </p>]'
p1456
ssS'13.2'
p1457
(dp1458
g3
S'Williamson'
p1459
sg5
S'no run'
p1460
sg7
S' Jadeja'
p1461
sg9
S'\nthis time flighted on a similar line as this is played back to the bowler  </p>]'
p1462
ssS'13.3'
p1463
(dp1464
g3
S'Williamson'
p1465
sg5
S'1 run'
p1466
sg7
S' Jadeja'
p1467
sg9
S'\nWilliamson down the track to drive this on the up to extra-cover  </p>]'
p1468
ssS'13.1'
p1469
(dp1470
g3
S'Williamson'
p1471
sg5
S'no run'
p1472
sg7
S' Jadeja'
p1473
sg9
S'\nbegins with a flatter delivery which is driven straight back to the bowler  who dives to his right to recover it  </p>]'
p1474
ssS'4.5'
p1475
(dp1476
g3
S'Guptill'
p1477
sg5
S'no run'
p1478
sg7
S' Kumar'
p1479
sg9
S'\nnice carry to the keeper as this one shapes away outside off  </p>]'
p1480
ssS'4.4'
p1481
(dp1482
g3
S'Guptill'
p1483
sg5
S'no run'
p1484
sg7
S' Kumar'
p1485
sg9
S'\nshuffles over a few steps to this length delivery on the pads as he looks to guide this through the leg side  but finds the fielder  </p>]'
p1486
ssS'5.2'
p1487
(dp1488
g3
S'Williamson'
p1489
sg5
S'no run'
p1490
sg7
S' Mohammed Shami'
p1491
sg9
S'\nbowls a back of a length delivery which rises appreciably outside off as Williamson shoulders arms  </p>]'
p1492
ssS'4.6'
p1493
(dp1494
g3
S'Guptill'
p1495
sg5
g32
sg7
S' Kumar'
p1496
sg9
S'\nthe line a tad wider outside off as Guptill is afforded room to get this away through point for his first boundary  </p>]'
p1497
ssS'4.1'
p1498
(dp1499
g3
S'Guptill'
p1500
sg5
S'no run'
p1501
sg7
S' Kumar'
p1502
sg9
S'\ndefends this back of a length delivery to the off side  </p>]'
p1503
ssS'5.5'
p1504
(dp1505
g3
S'Williamson'
p1506
sg5
S'1 run'
p1507
sg7
S' Mohammed Shami'
p1508
sg9
S'\nshortish length on middle as Williamson employs the pull shot  but is late on it as this one is bottom-edged onto his stomach  deflecting away towards third man. Ends up being ruled as runs  </p>]'
p1509
ssS'4.3'
p1510
(dp1511
g3
S'Guptill'
p1512
sg5
S'no run'
p1513
sg7
S' Kumar'
p1514
sg9
S'\ngets this one to shape away from a length outside off  </p>]'
p1515
ssS'4.2'
p1516
(dp1517
g3
S'Guptill'
p1518
sg5
S'no run'
p1519
sg7
S' Kumar'
p1520
sg9
S'\npitched up and nibbling away late outside off  Guptill leaves it well alone  </p>]'
p1521
ssS'11.4'
p1522
(dp1523
g3
S'Williamson'
p1524
sg5
S'no run'
p1525
sg7
S' I Sharma'
p1526
sg9
S'\nWilliamson not particularly in a hurry as he thrusts forward to defend this offering from Ishant  </p>]'
p1527
ssS'11.5'
p1528
(dp1529
g3
S'Williamson'
p1530
sg5
S'2 runs'
p1531
sg7
S' I Sharma'
p1532
sg9
S'\npunches this length delivery off the back foot towards deep extra-cover. Williamson was up high on his toes as he caressed this one through the gap  </p>]'
p1533
ssS'11.6'
p1534
(dp1535
g3
S'Williamson'
p1536
sg5
S'2 runs'
p1537
sg7
S' I Sharma'
p1538
sg9
S'\nplayed away towards deep extra-cover to bring the over to an end  </p>]'
p1539
ssS'11.1'
p1540
(dp1541
g3
S'Williamson'
p1542
sg5
S'no run'
p1543
sg7
S' I Sharma'
p1544
sg9
S'\nIshant pitches this one just outside off as this is drilled straight to silly mid-off  </p>]'
p1545
ssS'11.2'
p1546
(dp1547
g3
S'Williamson'
p1548
sg5
S'no run'
p1549
sg7
S' I Sharma'
p1550
sg9
S'\nback of a length and allowed through to the keeper  </p>]'
p1551
ssS'11.3'
p1552
(dp1553
g3
S'Williamson'
p1554
sg5
S'no run'
p1555
sg7
S' I Sharma'
p1556
sg9
S'\ntries to get this shortish length away through the off side  but finds the fielder at cover  </p>]'
p1557
ssS'17.2'
p1558
(dp1559
g3
S'Taylor'
p1560
sg5
S'no run'
p1561
sg7
S' Ashwin'
p1562
sg9
S'\ndefended back to the bowler by Taylor  </p>]'
p1563
ssS'17.3'
p1564
(dp1565
g3
S'Taylor'
p1566
sg5
S'no run'
p1567
sg7
S' Ashwin'
p1568
sg9
S'\nslightly slower delivery which is defended cautiously  </p>]'
p1569
ssS'17.1'
p1570
(dp1571
g3
S'Williamson'
p1572
sg5
S'1 run'
p1573
sg7
S' Ashwin'
p1574
sg9
S'\ncharges Ashwin straight away as this is played just to the right of him  </p>]'
p1575
ssS'17.6'
p1576
(dp1577
g3
S'Williamson'
p1578
sg5
S'no run'
p1579
sg7
S' Ashwin'
p1580
sg9
S"\nagain down the track to this drifted delivery from Ashwin  but can't get it past Ashwin  </p>]"
p1581
ssS'36.3'
p1582
(dp1583
g3
S'Anderson'
p1584
sg5
S'no run'
p1585
sg7
S' Mohammed Shami'
p1586
sg9
S'\nshortish length slanting across Corey as he lets this through to the keeper  </p>]'
p1587
ssS'17.4'
p1588
(dp1589
g3
S'Taylor'
p1590
sg5
S'1 run'
p1591
sg7
S' Ashwin'
p1592
sg9
S'\nthis time eases this flatter one down to long-on for one  </p>]'
p1593
ssS'17.5'
p1594
(dp1595
g3
S'Williamson'
p1596
sg5
S'no run'
p1597
sg7
S' Ashwin'
p1598
sg9
S'\nplayed off the back foot towards point by Williamson  </p>]'
p1599
ssS'47.1'
p1600
(dp1601
g3
S'Ronchi'
p1602
sg5
S'1 run'
p1603
sg7
S' I Sharma'
p1604
sg9
S'\ndelivers this on middle at a fuller length as this is drilled down to long-on  </p>]'
p1605
ssS'47.3'
p1606
(dp1607
g3
S'Anderson'
p1608
sg5
g227
sg7
S' I Sharma'
p1609
sg9
S'\nAnderson is in a belligerent mood as he just heaves this fuller one from Ishant over midwicket for the fourth six of his innings. IPL contract beckoning my boy!  </p>]'
p1610
ssS'36.2'
p1611
(dp1612
g3
S'Taylor'
p1613
sg5
g467
sg7
S' Mohammed Shami'
p1614
sg9
S'\nand Shami strikes straight away as he gets Taylor to play a tired shot  having a go at this one wide outside off which catches the outside edge on the way to Dhoni  who does well to snaffle it. Ends a fighting knock from Taylor  </p>]'
p1615
ssS'47.5'
p1616
(dp1617
g3
S'Ronchi'
p1618
sg5
g467
sg7
S' I Sharma'
p1619
sg9
S"\nback of a length outside off which has Ronchi playing late behind him  but I don't think he saw the fielder at backward point  as Kumar peddles back before taking a catch to his right to hold onto it. Ends a good supporting act from Ronchi  who came to the party at just the right time for his side  </p>]"
p1620
ssS'47.2'
p1621
(dp1622
g3
S'Anderson'
p1623
sg5
S'2 runs'
p1624
sg7
S' I Sharma'
p1625
sg9
S'\nfull and just outside off as Anderson spoons this over extra-cover for a couple  </p>]'
p1626
ssS'47.6'
p1627
(dp1628
g3
S'McCullum'
p1629
sg5
S'2 runs'
p1630
sg7
S' I Sharma'
p1631
sg9
S"\nNathan far too early into his shot as he ends up spooning this high over mid-on  but with no fielder there it ends up falling safely  but the action isn't over there as a throw from the deep while the pair go for two almost costs them a wicket as the stumps are thrown down. Replays confirm  however  that the batsman had made his ground successfully  </p>]"
p1632
ssS'46.4'
p1633
(dp1634
g3
S'Anderson'
p1635
sg5
S'1 run'
p1636
sg7
S' Mohammed Shami'
p1637
sg9
S'\njust drills this almost yorker-length ball straight back past the bowler  with the boundary riders coming into play  </p>]'
p1638
ssS'46.5'
p1639
(dp1640
g3
S'Ronchi'
p1641
sg5
S'1 run'
p1642
sg7
S' Mohammed Shami'
p1643
sg9
S'\nlow full toss just outside off which is directed towards the leg side instead by the batsman  </p>]'
p1644
ssS'46.6'
p1645
(dp1646
g3
S'Anderson'
p1647
sg5
S'no run'
p1648
sg7
S' Mohammed Shami'
p1649
sg9
S'\nfuller one just outside off as Anderson has a swing and a miss  </p>]'
p1650
ssS'46.1'
p1651
(dp1652
g3
S'Anderson'
p1653
sg5
S'no run'
p1654
sg7
S' Mohammed Shami'
p1655
sg9
S'\npushes one across Anderson who fails to get a bat on it  thinking instead that it will go for a wide  but the umpire is unmoved  </p>]'
p1656
ssS'46.2'
p1657
(dp1658
g3
S'Anderson'
p1659
sg5
S'2 runs'
p1660
sg7
S' Mohammed Shami'
p1661
sg9
S'\nfull and wide outside off as Anderson times this beautifully towards extra-cover  with Kohli doing well to dive and stop it before the boundary  </p>]'
p1662
ssS'5.1'
p1663
(dp1664
g3
S'Williamson'
p1665
sg5
S'no run'
p1666
sg7
S' Mohammed Shami'
p1667
sg9
S"\nplays this back of a length delivery off his hips  but can't find the single  </p>]"
p1668
ssS'5.3'
p1669
(dp1670
g3
S'Williamson'
p1671
sg5
S'no run'
p1672
sg7
S' Mohammed Shami'
p1673
sg9
S'\npitches this a bit further up as Williamson can not be teased into offering a shot  </p>]'
p1674
ssS'41.1'
p1675
(dp1676
g3
S'Anderson'
p1677
sg5
S'1 run'
p1678
sg7
S' Kumar'
p1679
sg9
S'\nback of a length slanting across Anderson as he just slams this back to the fielder at long-off  </p>]'
p1680
ssS'29.5'
p1681
(dp1682
g3
S'Taylor'
p1683
sg5
S'2 runs  </p>]'
p1684
sg7
S' Ashwin'
p1685
sg9
g1180
ssS'5.4'
p1686
(dp1687
g3
S'Williamson'
p1688
sg5
S'no run'
p1689
sg7
S' Mohammed Shami'
p1690
sg9
S'\nShami pitching this again just outside off as Williamson shoulders arms  </p>]'
p1691
ssS'29.6'
p1692
(dp1693
g3
S'Taylor'
p1694
sg5
S'1 run'
p1695
sg7
S' Ashwin'
p1696
sg9
S'\nurned wide of the fielder at mid-on  Dhoni asks the fielder to take it easy  he is shouting to him  but the throw comes in finally  </p>]'
p1697
ssS'29.1'
p1698
(dp1699
g3
S'Williamson'
p1700
sg5
S'1 run'
p1701
sg7
S' Ashwin'
p1702
sg9
S'\ndown the track to drill this fuller one towards deep extra-cover  </p>]'
p1703
ssS'29.3'
p1704
(dp1705
g3
S'Williamson'
p1706
sg5
g32
sg7
S' Ashwin'
p1707
sg9
S'\nthe 100-run stand has come with an outstanding stroke. Williamson comes down the track and goes over cover  with an inside out stroke. Lovely execution and it looked so graceful  </p>]'
p1708
ssS'29.2'
p1709
(dp1710
g3
S'Taylor'
p1711
sg5
S'1 run'
p1712
sg7
S' Ashwin'
p1713
sg9
S'\nfull on off  driven along the carpet to long-off  </p>]'
p1714
ssS'15.1'
p1715
(dp1716
g3
S'Williamson'
p1717
sg5
g32
sg7
S' Jadeja'
p1718
sg9
S"\nnot going to let Jadeja off the hook as he shimmies down before lofting him between long-on and midwicket for a boundary. Kumar put in the dive at the boundary  but can't prevent it from hitting the rope  </p>]"
p1719
ssS'15.2'
p1720
(dp1721
g3
S'Williamson'
p1722
sg5
S'1 run'
p1723
sg7
S' Jadeja'
p1724
sg9
S'\nthis time worked away to the leg side off the back foot  </p>]'
p1725
ssS'15.3'
p1726
(dp1727
g3
S'Taylor'
p1728
sg5
S'1 run'
p1729
sg7
S' Jadeja'
p1730
sg9
S'\nflighted just outside off as this is drilled straight to sweeper cover  </p>]'
p1731
ssS'15.4'
p1732
(dp1733
g3
S'Williamson'
p1734
sg5
S'no run'
p1735
sg7
S' Jadeja'
p1736
sg9
S'\nadvances down the track before playing this one straight to short cover point  </p>]'
p1737
ssS'5.6'
p1738
(dp1739
g3
S'Guptill'
p1740
sg5
S'no run'
p1741
sg7
S' Mohammed Shami'
p1742
sg9
S'\nfires in a back of a length delivery which Guptill fails to get away to the leg side  </p>]'
p1743
ssS'15.6'
p1744
(dp1745
g3
S'Taylor'
p1746
sg5
S'2 runs'
p1747
sg7
S' Jadeja'
p1748
sg9
S'\nin the slot as this is driven fiercely to the man at long-off  </p>]'
p1749
ssS'44.3'
p1750
(dp1751
g3
S'Anderson'
p1752
sg5
S'1 run'
p1753
sg7
S' Jadeja'
p1754
sg9
S'\nslaps away a shortish length delivery from Jadeja to long-off  </p>]'
p1755
ssS'49.4'
p1756
(dp1757
g3
S'Anderson'
p1758
sg5
S'2 runs'
p1759
sg7
S' I Sharma'
p1760
sg9
S"\nfull again as Anderson hits this one straight to long-off  and wants two all the way as he hustles back to his end  with Southee able to make his ground at the non-striker's despite the throw from the deep  </p>]"
p1761
ssS'48.2'
p1762
(dp1763
g3
S'Anderson'
p1764
sg5
S'1 run'
p1765
sg7
S' Mohammed Shami'
p1766
sg9
S'\nfull and drilled straight to the fielder at long-off. That one was hit so fast that when they changed the cameras the ball had already arrived to the fielder  </p>]'
p1767
ssS'48.3'
p1768
(dp1769
g3
S'McCullum'
p1770
sg5
S'no run'
p1771
sg7
S' Mohammed Shami'
p1772
sg9
S'\nquicker one just outside off which has Nathan quite late on it. Needs to hand over the strike to Anderson I reckon  </p>]'
p1773
ssS'48.1'
p1774
(dp1775
g3
S'Anderson'
p1776
sg5
S'2 runs'
p1777
sg7
S' Mohammed Shami'
p1778
sg9
S'\nexcellent running from New Zealand as they are able to grab two runs with a hit down to long-on  </p>]'
p1779
ssS'48.6'
p1780
(dp1781
g3
S'McCullum'
p1782
sg5
g467
sg7
S' Mohammed Shami'
p1783
sg9
S'\nfuller one going down the leg side as McCullum ends up hitting this straight back to Shami  who pockets it low around his knees to hold on to the chance. Even the cameraman had lost where that one had gone  </p>]'
p1784
ssS'48.4'
p1785
(dp1786
g3
S'McCullum'
p1787
sg5
S'no run'
p1788
sg7
S' Mohammed Shami'
p1789
sg9
S'\nslower ball outside off which Nathan again fails to get bat on ball to  </p>]'
p1790
ssS'48.5'
p1791
(dp1792
g3
S'McCullum'
p1793
sg5
S'no run'
p1794
sg7
S' Mohammed Shami'
p1795
sg9
S'\nbouncer outside off which is ruled a legitimate ball by the umpire despite it shaping away slightly. Ruled one for the over  </p>]'
p1796
ssS'47.4'
p1797
(dp1798
g3
S'Anderson'
p1799
sg5
S'1 run'
p1800
sg7
S' I Sharma'
p1801
sg9
S'\nlow full toss which is lasered down to long-off  </p>]'
p1802
ss.
