(dp0
S'33.5'
p1
(dp2
S'to'
p3
S'Anderson'
p4
sS'what'
p5
S'OUT'
p6
sS'from'
p7
S' Ashwin'
p8
sS'why'
p9
S'\nand Ashwin takes the big wicket of Anderson as he looks to cut away the bowler to the off side  but is cramped for space as this one hurries onto his stumps to have him bowled. Kohli is completely over the moon at this one as he pumps whatever he can to show off his pleasure  </p>]'
p10
ssS'35.2'
p11
(dp12
g3
S'Guptill'
p13
sg5
S'no run'
p14
sg7
S' Ashwin'
p15
sg9
S'\ndirected right back to the same fielder as Guptill looks for that elusive single  </p>]'
p16
ssS'35.3'
p17
(dp18
g3
S'Guptill'
p19
sg5
S'no run'
p20
sg7
S' Ashwin'
p21
sg9
S'\nthis time defended back to the bowler  </p>]'
p22
ssS'45.645.645.645.645.645.645.645.645.645.6'
p23
(dp24
g3
S'Southee'
p25
sg5
S'1 wide'
p26
sg7
S' Mohammed Shami'
p27
sg9
S'\nsplaying down the leg side as the batsman backs away  and is definitely outside the line  but this ends up being called a wide anyways  </p>]'
p28
ssS'35.1'
p29
(dp30
g3
S'Guptill'
p31
sg5
S'no run'
p32
sg7
S' Ashwin'
p33
sg9
S"\ntries a simple push to the leg side  but can't get the single despite the misfield from silly mid-on  </p>]"
p34
ssS'35.6'
p35
(dp36
g3
S'Guptill'
p37
sg5
S'1 run'
p38
sg7
S' Ashwin'
p39
sg9
S'\nand on the final ball of the over  Guptill is able to find the run with a push to long-off to register a <b>5th ODI century</b> </p>]'
p40
ssS'35.4'
p41
(dp42
g3
S'Guptill'
p43
sg5
S'no run'
p44
sg7
S' Ashwin'
p45
sg9
S'\nlooks to whip this away leg side  but midwicket is all over this like white on rice  </p>]'
p46
ssS'35.5'
p47
(dp48
g3
S'Guptill'
p49
sg5
S'no run'
p50
sg7
S' Ashwin'
p51
sg9
S'\ndriven on the up  but straight to short cover  </p>]'
p52
ssS'7.2'
p53
(dp54
g3
S'Guptill'
p55
sg5
S'1 run'
p56
sg7
S' Aaron'
p57
sg9
S'\nchops this one  but luckily away from the stumps  as this one travels towards fine leg  </p>]'
p58
ssS'6.6'
p59
(dp60
g3
S'Williamson'
p61
sg5
S'no run'
p62
sg7
S' Kumar'
p63
sg9
S'\ntries to cut away this length delivery outside off  but fails to get bat on ball  </p>]'
p64
ssS'12.1'
p65
(dp66
g3
S'Guptill'
p67
sg5
S'no run'
p68
sg7
S' Jadeja'
p69
sg9
S'\non the front foot and defended to the off side  </p>]'
p70
ssS'7.1'
p71
(dp72
g3
S'Guptill'
p73
sg5
S'no run'
p74
sg7
S' Aaron'
p75
sg9
S'\n138 kph  begins with an away swinger outside off which Guptill tries to cut away  </p>]'
p76
ssS'6.3'
p77
(dp78
g3
S'Guptill'
p79
sg5
S'no run'
p80
sg7
S' Kumar'
p81
sg9
S"\nbeats the outside edge of guptill's bat as this one tails away at the last moment outside off  </p>]"
p82
ssS'12.6'
p83
(dp84
g3
S'Williamson'
p85
sg5
S'2 runs'
p86
sg7
S' Jadeja'
p87
sg9
S'\ncuts this one through to third man  with Ashwin trying his damndest to get to it  and in the end succeeds  </p>]'
p88
ssS'6.1'
p89
(dp90
g3
S'Guptill'
p91
sg5
S'no run'
p92
sg7
S' Kumar'
p93
sg9
S'\nthis one angling in from outside off as Guptill looks to turn this away to the leg side  </p>]'
p94
ssS'12.4'
p95
(dp96
g3
S'Guptill'
p97
sg5
S'no run'
p98
sg7
S' Jadeja'
p99
sg9
S'\nprods forward to defend this one  </p>]'
p100
ssS'37.1'
p101
(dp102
g3
S'Taylor'
p103
sg5
S'1 run'
p104
sg7
S' Jadeja'
p105
sg9
S'\nable to play this with soft hands to the off side for a single  </p>]'
p106
ssS'37.2'
p107
(dp108
g3
S'Guptill'
p109
sg5
g6
sg7
S' Jadeja'
p110
sg9
S"\nand Guptill's fine innings comes to an end as he goes for the slog-sweep  but finds Rahane in the deep who takes a good catch at midwicket  </p>]"
p111
ssS'37.3'
p112
(dp113
g3
S'Taylor'
p114
sg5
S'no run'
p115
sg7
S' Jadeja'
p116
sg9
S'\nable to get a four between the keeper and short third man  </p>]'
p117
ssS'37.4'
p118
(dp119
g3
S'Taylor'
p120
sg5
S'4 run'
p121
sg7
S' Jadeja'
p122
sg9
S"\npushed to the leg side by Taylor  but can't pinch a run  </p>]"
p123
ssS'37.5'
p124
(dp125
g3
S'Taylor'
p126
sg5
S'no run'
p127
sg7
S' Jadeja'
p128
sg9
S'\nfull on middle and leg which is pushed down to long-on for one  </p>]'
p129
ssS'6.46.46.46.46.46.46.46.46.46.4'
p130
(dp131
g3
S'Guptill'
p132
sg5
g26
sg7
S' Kumar'
p133
sg9
S'\nsplays this one well down the leg side  with Mr. Bowden calling a wide  </p>]'
p134
ssS'10.1'
p135
(dp136
g3
S'Guptill'
p137
sg5
S'no run'
p138
sg7
S' Jadeja'
p139
sg9
S'\npresses forward to defend this first one from Jadeja  </p>]'
p140
ssS'10.3'
p141
(dp142
g3
S'Williamson'
p143
sg5
S'no run'
p144
sg7
S' Jadeja'
p145
sg9
S'\ngets onto the back foot to punch this away through the off side  but finds short cover  </p>]'
p146
ssS'10.2'
p147
(dp148
g3
S'Guptill'
p149
sg5
S'1 run'
p150
sg7
S' Jadeja'
p151
sg9
S'\nplants his foot as this is worked away to the off side for one  </p>]'
p152
ssS'10.5'
p153
(dp154
g3
S'Guptill'
p155
sg5
S'1 run'
p156
sg7
S' Jadeja'
p157
sg9
S'\nplayed off the back foot down to long-on for a single  </p>]'
p158
ssS'10.4'
p159
(dp160
g3
S'Williamson'
p161
sg5
S'1 run'
p162
sg7
S' Jadeja'
p163
sg9
S'\nthis time looks for a quick single to the leg side  and is able to make it in time before the throw  </p>]'
p164
ssS'10.6'
p165
(dp166
g3
S'Williamson'
p167
sg5
S'1 run'
p168
sg7
S' Jadeja'
p169
sg9
S'\nthis time is able to pierce the gap through the covers with a well-crafted back foot punch  </p>]'
p170
ssS'43.1'
p171
(dp172
g3
S'Ronchi'
p173
sg5
S'1 run'
p174
sg7
S' Jadeja'
p175
sg9
S'\ndriven down to long-on for a single  </p>]'
p176
ssS'33.3'
p177
(dp178
g3
S'Anderson'
p179
sg5
S'1 run'
p180
sg7
S' Ashwin'
p181
sg9
S'\ngets deep in his crease this time before pulling this away to the man at deep square leg  </p>]'
p182
ssS'44.6'
p183
(dp184
g3
S'Southee'
p185
sg5
S'1 run'
p186
sg7
S' Kumar'
p187
sg9
S'\nclipped off the pads behind square on the leg side  </p>]'
p188
ssS'16.6'
p189
(dp190
g3
S'Guptill'
p191
sg5
S'no run'
p192
sg7
S' Jadeja'
p193
sg9
S'\nonce again attempts to dab this past third man  </p>]'
p194
ssS'16.5'
p195
(dp196
g3
S'Williamson'
p197
sg5
S'1 run'
p198
sg7
S' Jadeja'
p199
sg9
S'\ndefended to the off side and is able to sneak in a single  </p>]'
p200
ssS'16.4'
p201
(dp202
g3
S'Williamson'
p203
sg5
S'no run'
p204
sg7
S' Jadeja'
p205
sg9
S'\ndirected away to silly mid-on. Run rate has also moved under 5  which is quite an achievement considering the blazing start NZ had made  </p>]'
p206
ssS'16.3'
p207
(dp208
g3
S'Williamson'
p209
sg5
S'no run'
p210
sg7
S' Jadeja'
p211
sg9
S'\ntries to run this one to third man  but the fielder is in to stop this one from giving up a single  </p>]'
p212
ssS'16.2'
p213
(dp214
g3
S'Guptill'
p215
sg5
S'1 run'
p216
sg7
S' Jadeja'
p217
sg9
S'\ndabbed down to long-on for one  </p>]'
p218
ssS'16.1'
p219
(dp220
g3
S'Williamson'
p221
sg5
S'1 run'
p222
sg7
S' Jadeja'
p223
sg9
S'\nplayed down to mid-on for a quick single  </p>]'
p224
ssS'44.1'
p225
(dp226
g3
S'McClenaghan'
p227
sg5
S'no run'
p228
sg7
S' Kumar'
p229
sg9
S"\ndabs this one towards backward point  but can't steal the single  </p>]"
p230
ssS'43.2'
p231
(dp232
g3
S'McCullum'
p233
sg5
S'1 run'
p234
sg7
S' Jadeja'
p235
sg9
S'\nthis time adopts the reverse sweep as he looks to get this past short third man  </p>]'
p236
ssS'43.4'
p237
(dp238
g3
S'McCullum'
p239
sg5
S'no run'
p240
sg7
S' Jadeja'
p241
sg9
S'\nends up defending this one tentatively back to the bowler  </p>]'
p242
ssS'14.4'
p243
(dp244
g3
S'Williamson'
p245
sg5
S'1 run'
p246
sg7
S' Jadeja'
p247
sg9
S'\nadvances down the track before lofting Jadeja towards long-off  but this one falls short  </p>]'
p248
ssS'40.640.640.640.640.640.640.640.640.640.6'
p249
(dp250
g3
S'Ronchi'
p251
sg5
g26
sg7
S' Aaron'
p252
sg9
S'\nwide heading down the leg side as the umpire gives the signal  </p>]'
p253
ssS'45.2'
p254
(dp255
g3
S'Southee'
p256
sg5
S'no run'
p257
sg7
S' Mohammed Shami'
p258
sg9
S'\nSouthee negotiates this latest offering to the off side  </p>]'
p259
ssS'45.1'
p260
(dp261
g3
S'Southee'
p262
sg5
S'no run'
p263
sg7
S' Mohammed Shami'
p264
sg9
S'\ntests him with bounceer as Southee swiels to avoid getting hurt  </p>]'
p265
ssS'45.6'
p266
(dp267
g3
S'Southee'
p268
sg5
S'2 runs'
p269
sg7
S' Mohammed Shami'
p270
sg9
S'\nfuller this time as McClenaghan goes for the lofted flick through the area  </p>]'
p271
ssS'45.5'
p272
(dp273
g3
S'Southee'
p274
sg5
S'no run'
p275
sg7
S' Mohammed Shami'
p276
sg9
S'\nonce again short as Southee is late on this one  </p>]'
p277
ssS'45.4'
p278
(dp279
g3
S'Southee'
p280
sg5
S'no run'
p281
sg7
S' Mohammed Shami'
p282
sg9
S'\nanother short one which has Southee inside-edging onto his pads while attempting a pull  </p>]'
p283
ssS'26.6'
p284
(dp285
g3
S'Guptill'
p286
sg5
g121
sg7
S' Aaron'
p287
sg9
S'\ndecides to go up and over to this shorter one from Aaron as he directs this towards extra-cover  with the ball beating an incoming sweeper cover to the boundary  </p>]'
p288
ssS'26.4'
p289
(dp290
g3
S'Guptill'
p291
sg5
S'1 run'
p292
sg7
S' Aaron'
p293
sg9
S'\nlength on the pads which is helped down to long-on  </p>]'
p294
ssS'26.5'
p295
(dp296
g3
S'Williamson'
p297
sg5
S'1 run'
p298
sg7
S' Aaron'
p299
sg9
S'\nplays this one with soft hands to the leg side  </p>]'
p300
ssS'26.2'
p301
(dp302
g3
S'Guptill'
p303
sg5
S'no run'
p304
sg7
S' Aaron'
p305
sg9
S'\ndrives this one quite loftily in the air towards extra-cover  </p>]'
p306
ssS'26.3'
p307
(dp308
g3
S'Guptill'
p309
sg5
g121
sg7
S' Aaron'
p310
sg9
S'\nplays an elegant lofted clip through square leg which races to the boundary  </p>]'
p311
ssS'26.1'
p312
(dp313
g3
S'Williamson'
p314
sg5
S'1 run'
p315
sg7
S' Aaron'
p316
sg9
S'\nfuller one on the pads which is clipped behind square on the leg side  </p>]'
p317
ssS'14.5'
p318
(dp319
g3
S'Guptill'
p320
sg5
S'no run'
p321
sg7
S' Jadeja'
p322
sg9
S'\ndirected straight to short cover by Guptill  </p>]'
p323
ssS'12.3'
p324
(dp325
g3
S'Williamson'
p326
sg5
S'1 run'
p327
sg7
S' Jadeja'
p328
sg9
S'\npunches this one off the back foot to the man at mid-on  </p>]'
p329
ssS'14.6'
p330
(dp331
g3
S'Guptill'
p332
sg5
S'no run'
p333
sg7
S' Jadeja'
p334
sg9
S'\nGuptill content to negotiate this final one to the off side  </p>]'
p335
ssS'14.1'
p336
(dp337
g3
S'Williamson'
p338
sg5
S'1 run'
p339
sg7
S' Jadeja'
p340
sg9
S'\nhelped off the back foot to the fielder at mid-on  </p>]'
p341
ssS'14.3'
p342
(dp343
g3
S'Guptill'
p344
sg5
S'1 run'
p345
sg7
S' Jadeja'
p346
sg9
S'\ndirects this one towards point for a quick single  </p>]'
p347
ssS'12.2'
p348
(dp349
g3
S'Guptill'
p350
sg5
S'1 run'
p351
sg7
S' Jadeja'
p352
sg9
S'\nthis time turns it away to the leg side for one  </p>]'
p353
ssS'24.4'
p354
(dp355
g3
S'Williamson'
p356
sg5
S'1 run'
p357
sg7
S' Jadeja'
p358
sg9
S'\ndriven effectively by Kane to long-off  </p>]'
p359
ssS'24.5'
p360
(dp361
g3
S'Guptill'
p362
sg5
S'1 run'
p363
sg7
S' Jadeja'
p364
sg9
S'\npushes this one cautiously outside off behind square  </p>]'
p365
ssS'24.6'
p366
(dp367
g3
S'Williamson'
p368
sg5
S'no run'
p369
sg7
S' Jadeja'
p370
sg9
S'\ntries a forcing drive through the covers  but finds the fielder  </p>]'
p371
ssS'14.2'
p372
(dp373
g3
S'Guptill'
p374
sg5
S'no run'
p375
sg7
S' Jadeja'
p376
sg9
S'\ncovers the line of this one heading down the pads  </p>]'
p377
ssS'6.5'
p378
(dp379
g3
S'Guptill'
p380
sg5
S'1 leg bye'
p381
sg7
S' Kumar'
p382
sg9
S'\nswinging down the leg side as Guptill attempts to get this down to fine leg  with the umpire calling a leg-bye  </p>]'
p383
ssS'24.2'
p384
(dp385
g3
S'Guptill'
p386
sg5
g121
sg7
S' Jadeja'
p387
sg9
S'\nuses the length to get deep in his crease before carting this through fine leg on one knee for a boundary. That shot also brings up his <b>fifty</b> </p>]'
p388
ssS'24.3'
p389
(dp390
g3
S'Guptill'
p391
sg5
S'1 run'
p392
sg7
S' Jadeja'
p393
sg9
S'\nthis time finds a single on the leg side  </p>]'
p394
ssS'22.2'
p395
(dp396
g3
S'Williamson'
p397
sg5
S'1 run'
p398
sg7
S' Jadeja'
p399
sg9
S'\nangles this one behind square on the off side for a single  </p>]'
p400
ssS'22.3'
p401
(dp402
g3
S'Guptill'
p403
sg5
S'no run'
p404
sg7
S' Jadeja'
p405
sg9
S'\ndriven straight to short cover  </p>]'
p406
ssS'49.5'
p407
(dp408
g3
S'Southee'
p409
sg5
S'no run'
p410
sg7
S' Mohammed Shami'
p411
sg9
S'\ntoo full outside off as Southee once again backs away  but gets too far away as he misses a golden opportunity for runs  </p>]'
p412
ssS'6.4'
p413
(dp414
g3
S'Guptill'
p415
sg5
S'no run'
p416
sg7
S' Kumar'
p417
sg9
S'\nGuptill forward to this fuller one outside off  but decides to let it go to the keeper  </p>]'
p418
ssS'22.6'
p419
(dp420
g3
S'Guptill'
p421
sg5
S'1 run'
p422
sg7
S' Jadeja'
p423
sg9
S'\ngoes for a miscued short-arm pull which affords him a single  </p>]'
p424
ssS'49.2'
p425
(dp426
g3
S'Southee'
p427
sg5
S'no run'
p428
sg7
S' Mohammed Shami'
p429
sg9
S'\ntries a slower one just outside off as Southee has shuffled over too much  as this one goes past him on the right to the keeper  </p>]'
p430
ssS'22.4'
p431
(dp432
g3
S'Guptill'
p433
sg5
S'no run'
p434
sg7
S' Jadeja'
p435
sg9
S'\nfires in one on middle and leg as Guptill fails to pick this up  </p>]'
p436
ssS'22.5'
p437
(dp438
g3
S'Guptill'
p439
sg5
S'no run'
p440
sg7
S' Jadeja'
p441
sg9
S'\ntries to get this one round the corner  but backward square into play  </p>]'
p442
ssS'45.3'
p443
(dp444
g3
S'Southee'
p445
sg5
S'no run'
p446
sg7
S' Mohammed Shami'
p447
sg9
S'\ngoes for the big swing and a mass as the keeper collects from behind  </p>]'
p448
ssS'7.6'
p449
(dp450
g3
S'Guptill'
p451
sg5
S'1 run'
p452
sg7
S' Aaron'
p453
sg9
S'\nlength outside off which is played late towards deep point  </p>]'
p454
ssS'43.6'
p455
(dp456
g3
S'Ronchi'
p457
sg5
g6
sg7
S' Jadeja'
p458
sg9
S'\nand NZ are imploding here in Auckland as Ronchi  who is on 38 off 19  is the next go out as he flicks Jadeja towards deep midwicket  with Rahane taking the catch  </p>]'
p459
ssS'6.2'
p460
(dp461
g3
S'Guptill'
p462
sg5
S'no run'
p463
sg7
S' Kumar'
p464
sg9
S'\nlength outside off which is left alone by the batsman  </p>]'
p465
ssS'7.4'
p466
(dp467
g3
S'Guptill'
p468
sg5
S'no run'
p469
sg7
S' Aaron'
p470
sg9
S'\ndefended off the back foot by Guptill  </p>]'
p471
ssS'34.6'
p472
(dp473
g3
S'Taylor'
p474
sg5
S'no run'
p475
sg7
S' Kumar'
p476
sg9
S'\npunched off the back foot to the leg side for none  </p>]'
p477
ssS'34.5'
p478
(dp479
g3
S'Guptill'
p480
sg5
S'1 run'
p481
sg7
S' Kumar'
p482
sg9
S'\nGuptill almost succeeded in running himself out while on 98 as he plays this one straight to Kohli at silly mid-off  who has the time to aim at the stumps before firing this one wide of them  with Guptill stranded by miles  </p>]'
p483
ssS'7.5'
p484
(dp485
g3
S'Guptill'
p486
sg5
S'2 runs'
p487
sg7
S' Aaron'
p488
sg9
S'\non the front foot as this length ball is directed towards the covers for a brace. Also brings up the fifty for NZ  </p>]'
p489
ssS'34.3'
p490
(dp491
g3
S'Guptill'
p492
sg5
S'no run'
p493
sg7
S' Kumar'
p494
sg9
S'\nleans into a drive outside off as this is played straight to short cover  </p>]'
p495
ssS'34.2'
p496
(dp497
g3
S'Guptill'
p498
sg5
g121
sg7
S' Kumar'
p499
sg9
S'\nand Guptill once again on the back foot as this time he pulls this one in front of square to beat the converging fielders to the midwicket boundary  </p>]'
p500
ssS'34.1'
p501
(dp502
g3
S'Guptill'
p503
sg5
g121
sg7
S' Kumar'
p504
sg9
S'\nshort on middle and leg which is hooked by Guptill to the fine leg boundary for four  </p>]'
p505
ssS'24.1'
p506
(dp507
g3
S'Williamson'
p508
sg5
S'1 run'
p509
sg7
S' Jadeja'
p510
sg9
S'\nsteered directly to long-off by Kane  </p>]'
p511
ssS'3.6'
p512
(dp513
g3
S'Guptill'
p514
sg5
S'no run'
p515
sg7
S' Mohammed Shami'
p516
sg9
S'\nlength outside off which is allowed through to the keeper  </p>]'
p517
ssS'3.4'
p518
(dp519
g3
S'Ryder'
p520
sg5
S'1 run'
p521
sg7
S' Mohammed Shami'
p522
sg9
S'\nagain too straight from Shami as Ryder flicks this effortlessly to fine leg  </p>]'
p523
ssS'3.5'
p524
(dp525
g3
S'Guptill'
p526
sg5
S'no run'
p527
sg7
S' Mohammed Shami'
p528
sg9
S'\ntests him with a short one which surprises Guptill as he ducks under it  </p>]'
p529
ssS'3.2'
p530
(dp531
g3
S'Ryder'
p532
sg5
g121
sg7
S' Mohammed Shami'
p533
sg9
S'\ntoo straight from Shami as Ryder whisks this off the pads to the fine leg boundary  with deep fine leg rather square in his position  which is risky with the short boundaries all around at Eden Park  </p>]'
p534
ssS'3.3'
p535
(dp536
g3
S'Ryder'
p537
sg5
S'no run'
p538
sg7
S' Mohammed Shami'
p539
sg9
S'\nfuller one going past the off stump as Ryder is cramped for space to get this away  </p>]'
p540
ssS'42.3'
p541
(dp542
g3
S'Ronchi'
p543
sg5
S'1 run'
p544
sg7
S' Mohammed Shami'
p545
sg9
S'\npushed down the ground for a single  </p>]'
p546
ssS'3.1'
p547
(dp548
g3
S'Ryder'
p549
sg5
g121
sg7
S' Mohammed Shami'
p550
sg9
S'\nRyder just swats away this length ball going across him through extra-cover for a boundary  </p>]'
p551
ssS'2.3'
p552
(dp553
g3
S'Guptill'
p554
sg5
S'1 leg bye'
p555
sg7
S' Kumar'
p556
sg9
S'\nslanting down the pads again as Guptill tries to get this one away  but the ball thuds into his thigh pad  so ends up being called a leg-bye  </p>]'
p557
ssS'2.2'
p558
(dp559
g3
S'Guptill'
p560
sg5
S'no run'
p561
sg7
S' Kumar'
p562
sg9
S'\nGuptill plays inside the line of this fuller one that rushes past the outside edge to the keeper  </p>]'
p563
ssS'2.1'
p564
(dp565
g3
S'Guptill'
p566
sg5
S'no run'
p567
sg7
S' Kumar'
p568
sg9
S'\non the front foot as this is played away towards the off side  </p>]'
p569
ssS'36.6'
p570
(dp571
g3
S'Guptill'
p572
sg5
S'no run'
p573
sg7
S' Mohammed Shami'
p574
sg9
S'\ntries to laser this one through the covers  but short cover is able to get behind this  </p>]'
p575
ssS'36.1'
p576
(dp577
g3
S'Guptill'
p578
sg5
S'no run'
p579
sg7
S' Mohammed Shami'
p580
sg9
S'\ntries to force Shami through the off side with a drive  but the fielder is on top of this  </p>]'
p581
ssS'2.6'
p582
(dp583
g3
S'Ryder'
p584
sg5
S'1 run'
p585
sg7
S' Kumar'
p586
sg9
S'\nwaits on this fuller one as Ryder just times this one sweetly square off the wicket on the off side  with the bounce threatening to go over point  but the fielder is able to stop it in the end  </p>]'
p587
ssS'2.5'
p588
(dp589
g3
S'Ryder'
p590
sg5
g121
sg7
S' Kumar'
p591
sg9
S'\nRyder intentionally edges this one outside off and shaping across him to the short third man boundary as this one rushes across the surface  </p>]'
p592
ssS'2.4'
p593
(dp594
g3
S'Ryder'
p595
sg5
S'no run'
p596
sg7
S' Kumar'
p597
sg9
S"\ngoing across him with a back of a length delivery as Ryder mistimes an attempted back foot punch. Doesn't seem to be coming along too well to the batsman from Bhuvi  </p>]"
p598
ssS'20.1'
p599
(dp600
g3
S'Williamson'
p601
sg5
S'1 run'
p602
sg7
S' Jadeja'
p603
sg9
S'\nKane able to get this away to the off side for one  </p>]'
p604
ssS'20.2'
p605
(dp606
g3
S'Guptill'
p607
sg5
g121
sg7
S' Jadeja'
p608
sg9
S'\nlofts this one over extra-cover for a boundary  </p>]'
p609
ssS'20.3'
p610
(dp611
g3
S'Guptill'
p612
sg5
S'1 run  </p>]'
p613
sg7
S' Jadeja'
p614
sg9
S''
p615
ssS'20.4'
p616
(dp617
g3
S'Williamson'
p618
sg5
S'1 run'
p619
sg7
S' Jadeja'
p620
sg9
S'\ngets behind this one comfortably to run it down to long-on  </p>]'
p621
ssS'20.5'
p622
(dp623
g3
S'Guptill'
p624
sg5
S'no run'
p625
sg7
S' Jadeja'
p626
sg9
S'\ndefends this one to the off side  </p>]'
p627
ssS'20.6'
p628
(dp629
g3
S'Guptill'
p630
sg5
S'1 run'
p631
sg7
S' Jadeja'
p632
sg9
S'\nwhipped off the pads to square leg for one  </p>]'
p633
ssS'49.6'
p634
(dp635
g3
S'Southee'
p636
sg5
S'1 run'
p637
sg7
S' Mohammed Shami'
p638
sg9
S' <span class="commsImportant">OUT</span> \nfull on middle as this is miscued down to long-on. The NZ pair want two as they hustle hard  but the throw from the deep is able to reach Dhoni in time for him to have an under-arm flick to run out Tim Southee  </p>]'
p639
ssS'46.3'
p640
(dp641
g3
S'Southee'
p642
sg5
S'no run'
p643
sg7
S' Kumar'
p644
sg9
S'\nanother short one which has the batsman ducing wa  </p>]'
p645
ssS'42.1'
p646
(dp647
g3
S'Taylor'
p648
sg5
S'1 run'
p649
sg7
S' Mohammed Shami'
p650
sg9
S'\nfuller one that is driven down to long-on  </p>]'
p651
ssS'22.1'
p652
(dp653
g3
S'Williamson'
p654
sg5
S'no run'
p655
sg7
S' Jadeja'
p656
sg9
S'\ndriven straight back to Jadeja  who does well to field this one  </p>]'
p657
ssS'37.6'
p658
(dp659
g3
S'Taylor'
p660
sg5
S'1 run  </p>]'
p661
sg7
S' Jadeja'
p662
sg9
g615
ssS'49.3'
p663
(dp664
g3
S'Southee'
p665
sg5
S'6 run'
p666
sg7
S' Mohammed Shami'
p667
sg9
S'\nand Southee charges Shami to club him over long-off for a flat six. The cameraman was in position there  and looks like he saw a ghost after that last one  </p>]'
p668
ssS'39.1'
p669
(dp670
g3
S'Ronchi'
p671
sg5
S'no run'
p672
sg7
S' Raina'
p673
sg9
S'\nRonchi tries to get away Raina through the off side  but is late on the ball  </p>]'
p674
ssS'21.5'
p675
(dp676
g3
S'Guptill'
p677
sg5
S'1 run'
p678
sg7
S' Ashwin'
p679
sg9
S'\nturns this away to the leg side for a single  </p>]'
p680
ssS'49.1'
p681
(dp682
g3
S'Bennett'
p683
sg5
S'1 run'
p684
sg7
S' Mohammed Shami'
p685
sg9
S'\nsteers this one by opening the face down to third man to get Southee on strike  </p>]'
p686
ssS'40.2'
p687
(dp688
g3
S'Taylor'
p689
sg5
S'1 run'
p690
sg7
S' Aaron'
p691
sg9
S'\nhelped down to the man at long-on for one  </p>]'
p692
ssS'40.3'
p693
(dp694
g3
S'Ronchi'
p695
sg5
S'no run'
p696
sg7
S' Aaron'
p697
sg9
S'\nlooks to cut away this shorter one through the off side  but ends up chopping it away instead  </p>]'
p698
ssS'40.1'
p699
(dp700
g3
S'Taylor'
p701
sg5
g121
sg7
S' Aaron'
p702
sg9
S'\nfull and just outside off as Taylor gets an edge on it to get a streaky boundary through third man  </p>]'
p703
ssS'40.6'
p704
(dp705
g3
S'Ronchi'
p706
sg5
g121
sg7
S' Aaron'
p707
sg9
S'\nanother overpitched ball  almost a yorker  as Ronchi is able to pierce the gap through extra-cover to get a boundary  </p>]'
p708
ssS'40.4'
p709
(dp710
g3
S'Ronchi'
p711
sg5
g121
sg7
S' Aaron'
p712
sg9
S'\nAaron fires in a bouncer which Ronchi goes for as this one is top-edged well over the keeper  with third man watching it go over the rope  </p>]'
p713
ssS'40.5'
p714
(dp715
g3
S'Ronchi'
p716
sg5
S'2 runs'
p717
sg7
S' Aaron'
p718
sg9
S'\nfull again as this is drilled towards cover  with the pair running a hard single  before returning back because of the fielder not backing up the first throw  </p>]'
p719
ssS'27.3'
p720
(dp721
g3
S'Guptill'
p722
sg5
S'no run'
p723
sg7
S' Ashwin'
p724
sg9
S'\ntries another forcing shot through the leg side  </p>]'
p725
ssS'27.2'
p726
(dp727
g3
S'Guptill'
p728
sg5
S'no run'
p729
sg7
S' Ashwin'
p730
sg9
S'\nlooks to get this one away past silly mid-on  but the fielder is equal to the task  </p>]'
p731
ssS'27.1'
p732
(dp733
g3
S'Williamson'
p734
sg5
S'1 run'
p735
sg7
S' Ashwin'
p736
sg9
S'\nand Williamson finds the gap on the leg side as he brings up another <b>fifty</b>  the third one of the series at that  </p>]'
p737
ssS'21.6'
p738
(dp739
g3
S'Williamson'
p740
sg5
S'1 run'
p741
sg7
S' Ashwin'
p742
sg9
S'\nKane uses his feet to help push this one down to long-on  </p>]'
p743
ssS'43.3'
p744
(dp745
g3
S'Ronchi'
p746
sg5
S'1 run'
p747
sg7
S' Jadeja'
p748
sg9
S'\nhelped down to the man at long-on for one  </p>]'
p749
ssS'27.6'
p750
(dp751
g3
S'Guptill'
p752
sg5
S'no run'
p753
sg7
S' Ashwin'
p754
sg9
S'\nwhipped off the pads straight to mid-on  </p>]'
p755
ssS'27.5'
p756
(dp757
g3
S'Williamson'
p758
sg5
S'1 run'
p759
sg7
S' Ashwin'
p760
sg9
S'\nhelped down to the fielder at long-on for one  </p>]'
p761
ssS'27.4'
p762
(dp763
g3
S'Guptill'
p764
sg5
S'1 run'
p765
sg7
S' Ashwin'
p766
sg9
S'\nwell fielded by Rahane as this one is directed towards silly mid-on  with Rahane pulling out the dive to stop this in its tracks  </p>]'
p767
ssS'21.1'
p768
(dp769
g3
S'Guptill'
p770
sg5
S'1 run'
p771
sg7
S' Ashwin'
p772
sg9
S'\nturns this one to the leg side for one  </p>]'
p773
ssS'42.2'
p774
(dp775
g3
S'Ronchi'
p776
sg5
g666
sg7
S' Mohammed Shami'
p777
sg9
S'\nlow full toss and Ronchi is simply in the form of his life as he flicks this one effortlessly to deep fine leg. There is a man in the Orange Brigade who tries a one-handed catch  but the ball bobbles out. Looking quite disconsolate now  that guy  </p>]'
p778
ssS'12.5'
p779
(dp780
g3
S'Guptill'
p781
sg5
S'1 run'
p782
sg7
S' Jadeja'
p783
sg9
S'\nsteers this one behind square to backward point  </p>]'
p784
ssS'42.4'
p785
(dp786
g3
S'Taylor'
p787
sg5
g6
sg7
S' Mohammed Shami'
p788
sg9
S'\nand finally India has managed to knock down the stumps as that man Rahane picks this one up from silly mid-off  who takes a bit of time before firing in the accurate throw. Taylor is the unlucky man as he storms off on 17  </p>]'
p789
ssS'30.4'
p790
(dp791
g3
S'Guptill'
p792
sg5
g666
sg7
S' Mohammed Shami'
p793
sg9
S'\nfuller one on middle and off which is lofted straight down the ground effortlessly  with his head bowed in trademark Guptill fashion  </p>]'
p794
ssS'42.6'
p795
(dp796
g3
S'Ronchi'
p797
sg5
S'1 run'
p798
sg7
S' Mohammed Shami'
p799
sg9
S'\nand Ronchi keeps the strike with a pull to the leg side for one  </p>]'
p800
ssS'25.1'
p801
(dp802
g3
S'Guptill'
p803
sg5
S'no run'
p804
sg7
S' Raina'
p805
sg9
S'\ntries to whack this one over the leg side  but miscues it  </p>]'
p806
ssS'25.3'
p807
(dp808
g3
S'Williamson'
p809
sg5
g121
sg7
S' Raina'
p810
sg9
S'\ntucks this one round the corner to the fine leg boundary for four  </p>]'
p811
ssS'25.2'
p812
(dp813
g3
S'Guptill'
p814
sg5
S'1 run'
p815
sg7
S' Raina'
p816
sg9
S'\nthis time driven down to long-on for one  </p>]'
p817
ssS'25.5'
p818
(dp819
g3
S'Guptill'
p820
sg5
S'no run'
p821
sg7
S' Raina'
p822
sg9
S"\ndabbed down to mid-on  but can't pinch the single  </p>]"
p823
ssS'25.4'
p824
(dp825
g3
S'Williamson'
p826
sg5
S'1 run'
p827
sg7
S' Raina'
p828
sg9
S'\ngets low to play a short-arm pull to square leg  </p>]'
p829
ssS'25.6'
p830
(dp831
g3
S'Guptill'
p832
sg5
S'2 runs'
p833
sg7
S' Raina'
p834
sg9
S'\nclobbers this one through square leg for a brace  </p>]'
p835
ssS'21.2'
p836
(dp837
g3
S'Williamson'
p838
sg5
g666
sg7
S' Ashwin'
p839
sg9
S'\nambles down before lofting him beautifully through extra-cover for a six  </p>]'
p840
ssS'28.6'
p841
(dp842
g3
S'Guptill'
p843
sg5
S'2 runs'
p844
sg7
S' Aaron'
p845
sg9
S'\nclipped off the pads down to deep square leg for a couple  </p>]'
p846
ssS'23.6'
p847
(dp848
g3
S'Guptill'
p849
sg5
S'no run'
p850
sg7
S' Raina'
p851
sg9
S'\nplayed straight to square leg to end the over  </p>]'
p852
ssS'23.5'
p853
(dp854
g3
S'Williamson'
p855
sg5
S'1 run'
p856
sg7
S' Raina'
p857
sg9
S'\npushed past the bowler to his right to the long-on fielder  </p>]'
p858
ssS'23.4'
p859
(dp860
g3
S'Guptill'
p861
sg5
S'1 run'
p862
sg7
S' Raina'
p863
sg9
S'\nwhisks this one away to the leg side  </p>]'
p864
ssS'23.3'
p865
(dp866
g3
S'Williamson'
p867
sg5
S'1 run'
p868
sg7
S' Raina'
p869
sg9
S'\nsacheys down the track before nurdling this to long-on  </p>]'
p870
ssS'23.2'
p871
(dp872
g3
S'Guptill'
p873
sg5
S'1 run'
p874
sg7
S' Raina'
p875
sg9
S'\ndriven straight to long-off for one  </p>]'
p876
ssS'23.1'
p877
(dp878
g3
S'Guptill'
p879
sg5
S'no run'
p880
sg7
S' Raina'
p881
sg9
S'\npushed off the back foot to mid-on  </p>]'
p882
ssS'32.1'
p883
(dp884
g3
S'Guptill'
p885
sg5
S'no run'
p886
sg7
S' Mohammed Shami'
p887
sg9
S"\nshort of a length outside off which beats Guptill's play-and-a-miss outside off  </p>]"
p888
ssS'32.3'
p889
(dp890
g3
S'Guptill'
p891
sg5
S'no run'
p892
sg7
S' Mohammed Shami'
p893
sg9
S'\nshort outside off as Guptill attempts a ramp over the slip region  </p>]'
p894
ssS'32.2'
p895
(dp896
g3
S'Guptill'
p897
sg5
g121
sg7
S' Mohammed Shami'
p898
sg9
S'\nrocks back before sending this short one from Shami to the deep midwicket boundary  </p>]'
p899
ssS'32.5'
p900
(dp901
g3
S'Williamson'
p902
sg5
g6
sg7
S' Mohammed Shami'
p903
sg9
S'\nand in the quest for quick runs Williamson backs away  thinking he could cart another short one over the slips from Shami  but Shami is able to pitch this one well up on middle and leg  with Kane not in a position at all to work this away. Ends a terrific innings from Kane  who will be livid at not being able to kick-on after the start  </p>]'
p904
ssS'32.4'
p905
(dp906
g3
S'Guptill'
p907
sg5
S'1 run'
p908
sg7
S' Mohammed Shami'
p909
sg9
S'\nshort again as Guptill pulls this time behind square on the leg side  but fine leg is placed well by Dhoni  </p>]'
p910
ssS'32.6'
p911
(dp912
g3
S'Anderson'
p913
sg5
S'1 run'
p914
sg7
S' Mohammed Shami'
p915
sg9
S'\nangling in on Anderson from round the wicket as this is fended away to the leg side  </p>]'
p916
ssS'33.4'
p917
(dp918
g3
S'Guptill'
p919
sg5
S'1 run'
p920
sg7
S' Ashwin'
p921
sg9
S'\ndriven down to long-off for a single  </p>]'
p922
ssS'19.4'
p923
(dp924
g3
S'Guptill'
p925
sg5
S'no run'
p926
sg7
S' Ashwin'
p927
sg9
S'\nfinds the fielder at silly mid-on with a gentle push  </p>]'
p928
ssS'33.6'
p929
(dp930
g3
S'Taylor'
p931
sg5
S'no run'
p932
sg7
S' Ashwin'
p933
sg9
S'\nlooks to turn away this first one from Ashwin to the leg side  but is sent back by the non-striker  </p>]'
p934
ssS'33.1'
p935
(dp936
g3
S'Anderson'
p937
sg5
S'no run'
p938
sg7
S' Ashwin'
p939
sg9
S'\nreaches out before attempting to help this round the corner  </p>]'
p940
ssS'33.2'
p941
(dp942
g3
S'Anderson'
p943
sg5
g666
sg7
S' Ashwin'
p944
sg9
S'\nand Anderson straight into the thick of things as he belts Ashwin with a flat six over long-on  </p>]'
p945
ssS'19.5'
p946
(dp947
g3
S'Guptill'
p948
sg5
S'no run'
p949
sg7
S' Ashwin'
p950
sg9
S'\nonce again finds the same fielder as they look to penetrate the inner field  </p>]'
p951
ssS'19.6'
p952
(dp953
g3
S'Guptill'
p954
sg5
S'no run'
p955
sg7
S' Ashwin'
p956
sg9
S'\ntucks this one straight to the man at backward square  </p>]'
p957
ssS'29.4'
p958
(dp959
g3
S'Williamson'
p960
sg5
S'1 run'
p961
sg7
S' Ashwin'
p962
sg9
S'\ndirected away to the off side by Kane for a single  </p>]'
p963
ssS'39.6'
p964
(dp965
g3
S'Taylor'
p966
sg5
S'1 run'
p967
sg7
S' Raina'
p968
sg9
S'\ntries a single on the leg side as Jadeja pounces on this quickly before rattling a throw to Dhoni  who breaks the stumps before he had collected the ball. But it is all okay as the batsman had made his ground in time  </p>]'
p969
ssS'39.4'
p970
(dp971
g3
S'Ronchi'
p972
sg5
S'1 leg bye'
p973
sg7
S' Raina'
p974
sg9
S'\nflicks this leg side delivery for a single  but ends up being called a leg-bye  </p>]'
p975
ssS'39.5'
p976
(dp977
g3
S'Taylor'
p978
sg5
S'no run'
p979
sg7
S' Raina'
p980
sg9
S'\nTaylor fends this fuller one away to the leg side  </p>]'
p981
ssS'39.2'
p982
(dp983
g3
S'Ronchi'
p984
sg5
S'no run'
p985
sg7
S' Raina'
p986
sg9
S'\nthis time tries through the leg side  but no dice  </p>]'
p987
ssS'39.3'
p988
(dp989
g3
S'Ronchi'
p990
sg5
S'no run  </p>]'
p991
sg7
S' Raina'
p992
sg9
g615
ssS'19.1'
p993
(dp994
g3
S'Williamson'
p995
sg5
S'2 runs'
p996
sg7
S' Ashwin'
p997
sg9
S'\ndriven down to long-on for a single as Raina recovers the ball  </p>]'
p998
ssS'8.1'
p999
(dp1000
g3
S'Guptill'
p1001
sg5
S'no run'
p1002
sg7
S' Kumar'
p1003
sg9
S'\ngets on the front foot as this is defended back to the bowler  </p>]'
p1004
ssS'21.4'
p1005
(dp1006
g3
S'Williamson'
p1007
sg5
S'1 run'
p1008
sg7
S' Ashwin'
p1009
sg9
S'\nable to get this to the leg side for a quick single  </p>]'
p1010
ssS'8.3'
p1011
(dp1012
g3
S'Williamson'
p1013
sg5
S'no run'
p1014
sg7
S' Kumar'
p1015
sg9
S'\ntries to cut this one through the covers but finds the close in fielder  </p>]'
p1016
ssS'8.2'
p1017
(dp1018
g3
S'Guptill'
p1019
sg5
S'1 run'
p1020
sg7
S' Kumar'
p1021
sg9
S'\nshortish length outside off which is run down to third man  </p>]'
p1022
ssS'8.5'
p1023
(dp1024
g3
S'Williamson'
p1025
sg5
S'1 run'
p1026
sg7
S' Kumar'
p1027
sg9
S'\non the back foot as this is worked away to mid-off  </p>]'
p1028
ssS'8.4'
p1029
(dp1030
g3
S'Williamson'
p1031
sg5
S'no run'
p1032
sg7
S' Kumar'
p1033
sg9
S'\nfuller one outside off which is let through to the keeper  </p>]'
p1034
ssS'21.3'
p1035
(dp1036
g3
S'Williamson'
p1037
sg5
S'no run'
p1038
sg7
S' Ashwin'
p1039
sg9
S'\nonce again looking to force the issue  but pushes this one straight to the bowler  </p>]'
p1040
ssS'8.6'
p1041
(dp1042
g3
S'Guptill'
p1043
sg5
S'no run'
p1044
sg7
S' Kumar'
p1045
sg9
S'\ndefended once again by Guptill on the front foot to bring an end to the over  </p>]'
p1046
ssS'1.61.61.61.61.61.61.61.61.61.6'
p1047
(dp1048
g3
S'Ryder'
p1049
sg5
g26
sg7
S' Mohammed Shami'
p1050
sg9
S'\na really messy delivery from Shami as he gets this bouncer horribly wrong  with the ball rising way over the batsman and keeper to carry behind for five wides  </p>]'
p1051
ssS'19.3'
p1052
(dp1053
g3
S'Williamson'
p1054
sg5
S'1 run'
p1055
sg7
S' Ashwin'
p1056
sg9
S'\npushes this one past the bowler to long-on  </p>]'
p1057
ssS'44.4'
p1058
(dp1059
g3
S'Southee'
p1060
sg5
S'no run'
p1061
sg7
S' Kumar'
p1062
sg9
S'\nlength outside off which is defended back to the bowler  </p>]'
p1063
ssS'42.5'
p1064
(dp1065
g3
S'Ronchi'
p1066
sg5
g666
sg7
S' Mohammed Shami'
p1067
sg9
S'\nRonchi knows he has to push on  and how. He proceeds to slam this full toss over the straight boundary for a six  </p>]'
p1068
ssS'30.3'
p1069
(dp1070
g3
S'Guptill'
p1071
sg5
S'no run'
p1072
sg7
S' Mohammed Shami'
p1073
sg9
S'\nlength outside off as Guptill leans into a drive through cover  </p>]'
p1074
ssS'44.5'
p1075
(dp1076
g3
S'Southee'
p1077
sg5
S'no run'
p1078
sg7
S' Kumar'
p1079
sg9
S'\noff the back foot and worked away to silly mid-on  </p>]'
p1080
ssS'9.4'
p1081
(dp1082
g3
S'Guptill'
p1083
sg5
S'no run'
p1084
sg7
S' Aaron'
p1085
sg9
S'\nfull again from Aaron as this is driven straight to mid-on  </p>]'
p1086
ssS'9.5'
p1087
(dp1088
g3
S'Guptill'
p1089
sg5
S'no run'
p1090
sg7
S' Aaron'
p1091
sg9
S"\nplays this shortish length with soft hands  but can't pinch the run as Aaron runs up to field this one  </p>]"
p1092
ssS'9.6'
p1093
(dp1094
g3
S'Guptill'
p1095
sg5
S'1 run'
p1096
sg7
S' Aaron'
p1097
sg9
S"\nGuptill gets forward to direct this away to the leg side before darting off to the other end for a quick single. Jadeja  coming in from the leg side  picks it up quickly before having a shy at the non-striker's  but misses the stumps  with Guptill putting in a full dive to make his ground  </p>]"
p1098
ssS'9.1'
p1099
(dp1100
g3
S'Williamson'
p1101
sg5
S'1 run'
p1102
sg7
S' Aaron'
p1103
sg9
S'\nfuller one on middle which is worked away for a single  </p>]'
p1104
ssS'9.2'
p1105
(dp1106
g3
S'Guptill'
p1107
sg5
S'no run'
p1108
sg7
S' Aaron'
p1109
sg9
S'\npitched up from Aaron as this is driven straight back to the bowler  </p>]'
p1110
ssS'9.3'
p1111
(dp1112
g3
S'Guptill'
p1113
sg5
S'2 runs'
p1114
sg7
S' Aaron'
p1115
sg9
S'\nin the blockhole as Guptill is able to dig this out behind square on the leg side  </p>]'
p1116
ssS'34.4'
p1117
(dp1118
g3
S'Guptill'
p1119
sg5
S'2 runs'
p1120
sg7
S' Kumar'
p1121
sg9
S'\noff the back foot as this is worked down to mid-on  </p>]'
p1122
ssS'41.6'
p1123
(dp1124
g3
S'Ronchi'
p1125
sg5
g121
sg7
S' Raina'
p1126
sg9
S'\ncuts this one away outside off  and with no fielders in the vicinity  it turns out to be an easy four  </p>]'
p1127
ssS'41.5'
p1128
(dp1129
g3
S'Ronchi'
p1130
sg5
g666
sg7
S' Raina'
p1131
sg9
S'\ninto position quickly to bludgeon this Raina offering to the straight boundary  </p>]'
p1132
ssS'41.4'
p1133
(dp1134
g3
S'Ronchi'
p1135
sg5
S'no run'
p1136
sg7
S' Raina'
p1137
sg9
S'\ntries to caress this through the covers  but finds the fielder  </p>]'
p1138
ssS'41.3'
p1139
(dp1140
g3
S'Taylor'
p1141
sg5
S'1 run'
p1142
sg7
S' Raina'
p1143
sg9
S'\npushed down to the man at long-on for a single  </p>]'
p1144
ssS'41.2'
p1145
(dp1146
g3
S'Ronchi'
p1147
sg5
S'1 run'
p1148
sg7
S' Raina'
p1149
sg9
S'\neased off the pads towards backward square for one  </p>]'
p1150
ssS'30.1'
p1151
(dp1152
g3
S'Williamson'
p1153
sg5
g121
sg7
S' Mohammed Shami'
p1154
sg9
S'\nshort outside off as Kane steps back before clattering this over the covers for a boundary  </p>]'
p1155
ssS'30.6'
p1156
(dp1157
g3
S'Guptill'
p1158
sg5
g121
sg7
S' Mohammed Shami'
p1159
sg9
S'\nand another lofted shot down the ground by Guptill as this one is hit powerfully enough to beat the long-on fielder to the rope  </p>]'
p1160
ssS'44.2'
p1161
(dp1162
g3
S'McClenaghan'
p1163
sg5
S'1 run'
p1164
sg7
S' Kumar'
p1165
sg9
S'\nruns this one to the off side for a single to get off the mark  </p>]'
p1166
ssS'43.5'
p1167
(dp1168
g3
S'McCullum'
p1169
sg5
g6
sg7
S' Jadeja'
p1170
sg9
S"\npushed off the back foot as there is a mix-up between the two batsman  with the throw coming in to Jadeja who removes the bails before Nathan is able to get in at the non-striker's  </p>]"
p1171
ssS'28.1'
p1172
(dp1173
g3
S'Williamson'
p1174
sg5
S'no run'
p1175
sg7
S' Aaron'
p1176
sg9
S'\nback of a length and angling in as Kane is able to cover the line  </p>]'
p1177
ssS'28.2'
p1178
(dp1179
g3
S'Williamson'
p1180
sg5
g121
sg7
S' Aaron'
p1181
sg9
S'\noverpitched from Aaron as this is lofted over mid-on for a one-bounce four  </p>]'
p1182
ssS'28.3'
p1183
(dp1184
g3
S'Williamson'
p1185
sg5
S'no run'
p1186
sg7
S' Aaron'
p1187
sg9
S'\nbacks away to try and direct this past backward point  </p>]'
p1188
ssS'28.4'
p1189
(dp1190
g3
S'Williamson'
p1191
sg5
S'1 run'
p1192
sg7
S' Aaron'
p1193
sg9
S'\neased off the back foot behind square to deep fine leg  </p>]'
p1194
ssS'28.5'
p1195
(dp1196
g3
S'Guptill'
p1197
sg5
S'no run'
p1198
sg7
S' Aaron'
p1199
sg9
S'\nswinging in on middle and leg as Guptill finds silly mid-on  </p>]'
p1200
ssS'7.3'
p1201
(dp1202
g3
S'Williamson'
p1203
sg5
S'1 run'
p1204
sg7
S' Aaron'
p1205
sg9
S'\nwide outside off as Kane plays this one late to get it down to third man  but third man is able to rush over to stop this from hitting the rope  </p>]'
p1206
ssS'15.5'
p1207
(dp1208
g3
S'Williamson'
p1209
sg5
S'1 run'
p1210
sg7
S' Ashwin'
p1211
sg9
S'\ndefended again down to long-on for one  </p>]'
p1212
ssS'15.6'
p1213
(dp1214
g3
S'Guptill'
p1215
sg5
S'no run'
p1216
sg7
S' Ashwin'
p1217
sg9
S'\nplayed back down to Ashwin to end the over  </p>]'
p1218
ssS'19.2'
p1219
(dp1220
g3
S'Williamson'
p1221
sg5
S'no run'
p1222
sg7
S' Ashwin'
p1223
sg9
S'\ndances down to try a lofted shot  but decides to abort that for a more conservative stroke to the bowler  </p>]'
p1224
ssS'38.2'
p1225
(dp1226
g3
S'Taylor'
p1227
sg5
S'1 run'
p1228
sg7
S' Aaron'
p1229
sg9
S'\nfires in a bouncer which is worked away to deep fine leg  </p>]'
p1230
ssS'31.6'
p1231
(dp1232
g3
S'Guptill'
p1233
sg5
S'1 run'
p1234
sg7
S' Ashwin'
p1235
sg9
S'\ntries another push off the back foot on the leg side for one  </p>]'
p1236
ssS'38.4'
p1237
(dp1238
g3
S'McCullum'
p1239
sg5
S'no run'
p1240
sg7
S' Aaron'
p1241
sg9
S'\nonce again up there from Aaron as this is played away to the off side  </p>]'
p1242
ssS'31.4'
p1243
(dp1244
g3
S'Guptill'
p1245
sg5
S'1 run'
p1246
sg7
S' Ashwin'
p1247
sg9
S'\ndriven down to long-on for one  </p>]'
p1248
ssS'31.5'
p1249
(dp1250
g3
S'Williamson'
p1251
sg5
S'1 run'
p1252
sg7
S' Ashwin'
p1253
sg9
S'\nflicked away to deep square leg for a single  </p>]'
p1254
ssS'31.2'
p1255
(dp1256
g3
S'Williamson'
p1257
sg5
S'1 run'
p1258
sg7
S' Ashwin'
p1259
sg9
S'\nturns this fuller one away to the leg side for one  </p>]'
p1260
ssS'31.3'
p1261
(dp1262
g3
S'Guptill'
p1263
sg5
S'no run'
p1264
sg7
S' Ashwin'
p1265
sg9
S'\nback of a length and pushed away to the leg side  </p>]'
p1266
ssS'31.1'
p1267
(dp1268
g3
S'Williamson'
p1269
sg5
S'no run'
p1270
sg7
S' Ashwin'
p1271
sg9
S"\nwhipped away on the front foot to the leg side  but can't beat square leg  </p>]"
p1272
ssS'18.1'
p1273
(dp1274
g3
S'Guptill'
p1275
sg5
S'2 runs'
p1276
sg7
S' Jadeja'
p1277
sg9
S'\npushes this one behind square on the off side for two  </p>]'
p1278
ssS'18.3'
p1279
(dp1280
g3
S'Guptill'
p1281
sg5
S'1 run'
p1282
sg7
S' Jadeja'
p1283
sg9
S'\ndrilled down to long-on for one  </p>]'
p1284
ssS'18.2'
p1285
(dp1286
g3
S'Guptill'
p1287
sg5
S'no run'
p1288
sg7
S' Jadeja'
p1289
sg9
S'\non the front foot and fended away to the leg side  </p>]'
p1290
ssS'18.5'
p1291
(dp1292
g3
S'Williamson'
p1293
sg5
S'no run'
p1294
sg7
S' Jadeja'
p1295
sg9
S'\ntries to run this one past backward point  </p>]'
p1296
ssS'18.4'
p1297
(dp1298
g3
S'Williamson'
p1299
sg5
S'no run'
p1300
sg7
S' Jadeja'
p1301
sg9
S'\ndriven straight to mid-on  </p>]'
p1302
ssS'18.6'
p1303
(dp1304
g3
S'Williamson'
p1305
sg5
S'1 run'
p1306
sg7
S' Jadeja'
p1307
sg9
S'\nclipped to the leg side  looking for two  but can only get the one  </p>]'
p1308
ssS'1.4'
p1309
(dp1310
g3
S'Ryder'
p1311
sg5
S'1 run'
p1312
sg7
S' Mohammed Shami'
p1313
sg9
S'\nstraying on the pads as Ryder tucks this one down to deep fine leg  </p>]'
p1314
ssS'1.5'
p1315
(dp1316
g3
S'Guptill'
p1317
sg5
S'1 run'
p1318
sg7
S' Mohammed Shami'
p1319
sg9
S'\nshortish length outside off which is run down to third man  </p>]'
p1320
ssS'1.6'
p1321
(dp1322
g3
S'Ryder'
p1323
sg5
S'no run'
p1324
sg7
S' Mohammed Shami'
p1325
sg9
S'\nthis time gets it right with a pitched up delivery that swings in from outside off as Ryder tries to blaze this away through the off side  </p>]'
p1326
ssS'1.1'
p1327
(dp1328
g3
S'Ryder'
p1329
sg5
S'1 run'
p1330
sg7
S' Mohammed Shami'
p1331
sg9
S'\nsurprises him with some extra bounce  right in that awkward region left-handers hate as Ryder fends this away behind square for a rushed single  </p>]'
p1332
ssS'1.2'
p1333
(dp1334
g3
S'Guptill'
p1335
sg5
S'no run'
p1336
sg7
S' Mohammed Shami'
p1337
sg9
S'\nplays this one off the back foot towards backward point  </p>]'
p1338
ssS'1.3'
p1339
(dp1340
g3
S'Guptill'
p1341
sg5
S'1 leg bye'
p1342
sg7
S' Mohammed Shami'
p1343
sg9
S'\nShami tries another bouncer and this time Guptill is the unlucky party as this one hurries onto him from a shortish length  clanging him on the helmet as he went for a hook  </p>]'
p1344
ssS'0.1'
p1345
(dp1346
g3
S'Guptill'
p1347
sg5
g121
sg7
S' Kumar'
p1348
sg9
S'\nshort of a length  middle and leg  hits Rohit Sharma on the thigh pad  </p>]'
p1349
ssS'30.2'
p1350
(dp1351
g3
S'Williamson'
p1352
sg5
S'1 run'
p1353
sg7
S' Mohammed Shami'
p1354
sg9
S'\n<b>dropped</b> looks like Kane is in a mood to dominate as he hammers this off the back foot straight to silly mid-on  with Raina getting low to his right to try and take this before dropping it  </p>]'
p1355
ssS'0.3'
p1356
(dp1357
g3
S'Guptill'
p1358
sg5
g121
sg7
S' Kumar'
p1359
sg9
S'\nthis time angling down the pads as Guptill glances this one fine down the leg side for four  </p>]'
p1360
ssS'0.2'
p1361
(dp1362
g3
S'Guptill'
p1363
sg5
S'no run'
p1364
sg7
S' Kumar'
p1365
sg9
S'\nsimilar line as before as this time Guptill chops it away to the short cover fielder  </p>]'
p1366
ssS'0.5'
p1367
(dp1368
g3
S'Guptill'
p1369
sg5
S'no run'
p1370
sg7
S' Kumar'
p1371
sg9
S'\non the back foot to this back of a length offering from Bhuvneshwar  </p>]'
p1372
ssS'0.4'
p1373
(dp1374
g3
S'Guptill'
p1375
sg5
S'no run'
p1376
sg7
S' Kumar'
p1377
sg9
S'\nback of a length and covered well by Guptill  </p>]'
p1378
ssS'30.5'
p1379
(dp1380
g3
S'Guptill'
p1381
sg5
S'no run'
p1382
sg7
S' Mohammed Shami'
p1383
sg9
S'\ntries another short one which Guptill decides to drop his wrists to  </p>]'
p1384
ssS'0.6'
p1385
(dp1386
g3
S'Guptill'
p1387
sg5
S'no run'
p1388
sg7
S' Kumar'
p1389
sg9
S'\nsolid on the front foot this time to end the first over. Good start for NZ so far  </p>]'
p1390
ssS'38.3'
p1391
(dp1392
g3
S'McCullum'
p1393
sg5
S'no run'
p1394
sg7
S' Aaron'
p1395
sg9
S'\nin the blockhole as Brendon is able to keep this out  </p>]'
p1396
ssS'36.5'
p1397
(dp1398
g3
S'Guptill'
p1399
sg5
g121
sg7
S' Mohammed Shami'
p1400
sg9
S'\nlow full toss on middle and leg which is powered over long-on for a boundary  </p>]'
p1401
ssS'38.1'
p1402
(dp1403
g3
S'Taylor'
p1404
sg5
S'no run'
p1405
sg7
S' Aaron'
p1406
sg9
S'\nshort of a length and defended off the back foot to the off side  </p>]'
p1407
ssS'38.6'
p1408
(dp1409
g3
S'Ronchi'
p1410
sg5
S'1 run'
p1411
sg7
S' Aaron'
p1412
sg9
S'\nand he is off the mark with a single down to long-on  </p>]'
p1413
ssS'38.5'
p1414
(dp1415
g3
S'McCullum'
p1416
sg5
g6
sg7
S' Aaron'
p1417
sg9
S'\nshort and wide as Brendon will not trouble the scorers today as he hammers this straight to Ashwin at point  who takes a safe catch. Aaron finally takes a wicket in his comeback match  and New Zealand are 230 for 5  </p>]'
p1418
ssS'36.4'
p1419
(dp1420
g3
S'Taylor'
p1421
sg5
S'1 run'
p1422
sg7
S' Mohammed Shami'
p1423
sg9
S'\npushes this one past the bowler for a single  </p>]'
p1424
ssS'13.6'
p1425
(dp1426
g3
S'Guptill'
p1427
sg5
S'no run'
p1428
sg7
S' Ashwin'
p1429
sg9
S'\nsafely negotiates this final one to end a good over from Ashwin  </p>]'
p1430
ssS'13.4'
p1431
(dp1432
g3
S'Williamson'
p1433
sg5
S'1 run'
p1434
sg7
S' Ashwin'
p1435
sg9
S'\nplayed off the back foot down to mid-on  </p>]'
p1436
ssS'13.5'
p1437
(dp1438
g3
S'Guptill'
p1439
sg5
S'no run'
p1440
sg7
S' Ashwin'
p1441
sg9
S'\neases this one back to the bowler  </p>]'
p1442
ssS'13.2'
p1443
(dp1444
g3
S'Guptill'
p1445
sg5
S'1 run'
p1446
sg7
S' Ashwin'
p1447
sg9
S'\npresses forward to play this softly to the off side for a quick single  </p>]'
p1448
ssS'13.3'
p1449
(dp1450
g3
S'Williamson'
p1451
sg5
S'no run'
p1452
sg7
S' Ashwin'
p1453
sg9
S'\nonce again defended back to the bowler  </p>]'
p1454
ssS'13.1'
p1455
(dp1456
g3
S'Guptill'
p1457
sg5
S'no run'
p1458
sg7
S' Ashwin'
p1459
sg9
S'\ndefends this one off the back foot to Ashwin  </p>]'
p1460
ssS'4.5'
p1461
(dp1462
g3
S'Williamson'
p1463
sg5
S'no run'
p1464
sg7
S' Kumar'
p1465
sg9
S'\non the front foot to block this one to the off side  </p>]'
p1466
ssS'4.4'
p1467
(dp1468
g3
S'Williamson'
p1469
sg5
S'no run'
p1470
sg7
S' Kumar'
p1471
sg9
S'\nfull and on the money as this is defended back to the bowler  </p>]'
p1472
ssS'5.2'
p1473
(dp1474
g3
S'Guptill'
p1475
sg5
S'4 leg byes'
p1476
sg7
S' Mohammed Shami'
p1477
sg9
S"\nbut this won't stop Guptill from trying his luck to another leg side bound delivery from Shami as he glances this one ever so fine to the boundary  </p>]"
p1478
ssS'4.6'
p1479
(dp1480
g3
S'Williamson'
p1481
sg5
S'1 run'
p1482
sg7
S' Kumar'
p1483
sg9
S"\nanother short one from Kumar and Kane goes after it instinctively  but doesn't quite get it off the middle  as this spoons high over towards deep fine leg  but falls just short of the fielder  </p>]"
p1484
ssS'4.1'
p1485
(dp1486
g3
S'Ryder'
p1487
sg5
g121
sg7
S' Kumar'
p1488
sg9
S'\nsublime timing from Ryder as he just opens the face to this back of a length ball going across him to find the point boundary. This one just screamed off the bat  </p>]'
p1489
ssS'5.5'
p1490
(dp1491
g3
S'Williamson'
p1492
sg5
S'no run'
p1493
sg7
S' Mohammed Shami'
p1494
sg9
S'\na little bit of away swing for Shami as Kane shoulders arms  </p>]'
p1495
ssS'4.3'
p1496
(dp1497
g3
S'Williamson'
p1498
sg5
S'no run'
p1499
sg7
S' Kumar'
p1500
sg9
S'\nwelcomes him to the crease with a short one as Kane does the sensible thing by ducking away  </p>]'
p1501
ssS'4.2'
p1502
(dp1503
g3
S'Ryder'
p1504
sg5
g6
sg7
S' Kumar'
p1505
sg9
S'\nand what a response from Bhuvi! The Indian contingent goes beserk as he gets this length ball to shape in on Ryder  who was looking to get this leg side  but the ball ends up hitting his pads onto the top of leg stump  </p>]'
p1506
ssS'11.4'
p1507
(dp1508
g3
S'Williamson'
p1509
sg5
S'no run'
p1510
sg7
S' Aaron'
p1511
sg9
S'\nshort one from Aaron which has Kane ducking for cover  </p>]'
p1512
ssS'11.5'
p1513
(dp1514
g3
S'Williamson'
p1515
sg5
S'no run'
p1516
sg7
S' Aaron'
p1517
sg9
S'\ntimes this fuller one outside off to the man at point  </p>]'
p1518
ssS'11.6'
p1519
(dp1520
g3
S'Williamson'
p1521
sg5
S'no run'
p1522
sg7
S' Aaron'
p1523
sg9
S'\nshort and wide outside off as Kane lets it through to the keeper  </p>]'
p1524
ssS'11.1'
p1525
(dp1526
g3
S'Williamson'
p1527
sg5
S'1 leg bye'
p1528
sg7
S' Aaron'
p1529
sg9
S'\nwhisked away to the leg side for a quick single  </p>]'
p1530
ssS'11.2'
p1531
(dp1532
g3
S'Guptill'
p1533
sg5
g121
sg7
S' Aaron'
p1534
sg9
S'\nin the slot for Guptill as he leans into this drive through extra-cover for a boundary  </p>]'
p1535
ssS'11.3'
p1536
(dp1537
g3
S'Guptill'
p1538
sg5
S'1 run'
p1539
sg7
S' Aaron'
p1540
sg9
S'\nplays this one with soft hands to the off side as Rahane  coming in from backward point  picks it up and throws it under-arm at the stumps  but misses. Kane would have been gone by a distance  </p>]'
p1541
ssS'17.2'
p1542
(dp1543
g3
S'Guptill'
p1544
sg5
S'no run'
p1545
sg7
S' Ashwin'
p1546
sg9
S'\ntries to tuck this round the corner  but backward square into play  </p>]'
p1547
ssS'17.3'
p1548
(dp1549
g3
S'Guptill'
p1550
sg5
S'1 run'
p1551
sg7
S' Ashwin'
p1552
sg9
S'\ndriven down to long-on for a single  </p>]'
p1553
ssS'17.1'
p1554
(dp1555
g3
S'Williamson'
p1556
sg5
S'1 run'
p1557
sg7
S' Ashwin'
p1558
sg9
S'\nnurdled down to long-on for one  </p>]'
p1559
ssS'17.6'
p1560
(dp1561
g3
S'Guptill'
p1562
sg5
S'1 run'
p1563
sg7
S' Ashwin'
p1564
sg9
S'\nplayed away to the leg side for one and to retain the strike  </p>]'
p1565
ssS'36.3'
p1566
(dp1567
g3
S'Guptill'
p1568
sg5
S'1 run'
p1569
sg7
S' Mohammed Shami'
p1570
sg9
S'\nfull just outside off as Guptill is able to squeeze this out to the off side  </p>]'
p1571
ssS'17.4'
p1572
(dp1573
g3
S'Williamson'
p1574
sg5
g121
sg7
S' Ashwin'
p1575
sg9
S'\nshuffles a bit towards middle as he sweeps this one fine past backward square to the boundary  </p>]'
p1576
ssS'17.5'
p1577
(dp1578
g3
S'Williamson'
p1579
sg5
S'1 run'
p1580
sg7
S' Ashwin'
p1581
sg9
S'\nplayed with soft hands towards point before setting off for one  </p>]'
p1582
ssS'47.1'
p1583
(dp1584
g3
S'McClenaghan'
p1585
sg5
S'no run'
p1586
sg7
S' Mohammed Shami'
p1587
sg9
S'\nshuffles over before attempting a paddle over fine leg  </p>]'
p1588
ssS'47.3'
p1589
(dp1590
g3
S'Bennett'
p1591
sg5
S'no run'
p1592
sg7
S' Mohammed Shami'
p1593
sg9
S'\ndefends this one back to the bower  who then fires in a throw at the non-strikers  </p>]'
p1594
ssS'36.2'
p1595
(dp1596
g3
S'Guptill'
p1597
sg5
g666
sg7
S' Mohammed Shami'
p1598
sg9
S'\ntests him with a short one as Guptill  who has a hundred under his belt  is not about to miss this as he unleashed as emphatic pull through midwicket  </p>]'
p1599
ssS'47.5'
p1600
(dp1601
g3
S'Bennett'
p1602
sg5
S'1 run'
p1603
sg7
S' Mohammed Shami'
p1604
sg9
S'\nchops this one away behind square for a single  </p>]'
p1605
ssS'47.2'
p1606
(dp1607
g3
S'McClenaghan'
p1608
sg5
g6
sg7
S' Mohammed Shami'
p1609
sg9
S'\nlobs this one behind point on the off side  but Jadeja is in the vicinity to take a forward diving catch  and hold on the chance  </p>]'
p1610
ssS'47.6'
p1611
(dp1612
g3
S'Southee'
p1613
sg5
g666
sg7
S' Mohammed Shami'
p1614
sg9
S'\nthis time goes for the back of a length ball down the pads as this is parried over  with Bhuvi at deep fine leg  who is in position to take the catch  but the ball ends up bouncing off his hands over the rope. Signalled six by the umpire  </p>]'
p1615
ssS'46.4'
p1616
(dp1617
g3
S'Southee'
p1618
sg5
S'no run'
p1619
sg7
S' Kumar'
p1620
sg9
S'\nlooking to push forward as Bhuvi fires in a bouncer  which the batsman misses  </p>]'
p1621
ssS'46.5'
p1622
(dp1623
g3
S'Southee'
p1624
sg5
S'1 run'
p1625
sg7
S' Kumar'
p1626
sg9
S'\nslower ball which he is able to get some bat ion as they picked up a single  </p>]'
p1627
ssS'46.6'
p1628
(dp1629
g3
S'McClenaghan'
p1630
sg5
S'1 run  </p>]'
p1631
sg7
S' Kumar'
p1632
sg9
g615
ssS'46.1'
p1633
(dp1634
g3
S'McClenaghan'
p1635
sg5
S'1 run'
p1636
sg7
S' Kumar'
p1637
sg9
S'\ntucked round the corner to fine leg by McClenaghan  </p>]'
p1638
ssS'46.2'
p1639
(dp1640
g3
S'Southee'
p1641
sg5
S'no run'
p1642
sg7
S' Kumar'
p1643
sg9
S'\ntries to get this one away through the leg side  </p>]'
p1644
ssS'5.1'
p1645
(dp1646
g3
S'Williamson'
p1647
sg5
S'1 run'
p1648
sg7
S' Mohammed Shami'
p1649
sg9
S'\nstraying down the pads again as Kane swivels to pull this one fine  but deep fine leg has been placed in a finer position to tackle these kind of shorts  </p>]'
p1650
ssS'11.111.111.111.111.111.111.111.111.111.1'
p1651
(dp1652
g3
S'Williamson'
p1653
sg5
g26
sg7
S' Aaron'
p1654
sg9
S'\nsplays this one well down the leg side  </p>]'
p1655
ssS'5.3'
p1656
(dp1657
g3
S'Guptill'
p1658
sg5
S'1 leg bye'
p1659
sg7
S' Mohammed Shami'
p1660
sg9
S'\nanother delivery slanting down the pads as Guptill fails to get this away  but still runs the leg-bye  </p>]'
p1661
ssS'37.237.237.237.237.237.237.237.237.237.2'
p1662
(dp1663
g3
S'Guptill'
p1664
sg5
g26
sg7
S' Jadeja'
p1665
sg9
S'\nstraying down the leg side as Dhoni collects from behind  with the umpire signalling a wide  </p>]'
p1666
ssS'41.1'
p1667
(dp1668
g3
S'Taylor'
p1669
sg5
S'1 run'
p1670
sg7
S' Raina'
p1671
sg9
S'\nruns this one down to long-on for one  </p>]'
p1672
ssS'29.5'
p1673
(dp1674
g3
S'Guptill'
p1675
sg5
S'no run'
p1676
sg7
S' Ashwin'
p1677
sg9
S"\npunched off the back foot  but can't get it past silly mid-on  </p>]"
p1678
ssS'5.4'
p1679
(dp1680
g3
S'Williamson'
p1681
sg5
S'no run'
p1682
sg7
S' Mohammed Shami'
p1683
sg9
S'\nlength ball shaping away outside off as Guptill is equal to the task  </p>]'
p1684
ssS'29.6'
p1685
(dp1686
g3
S'Guptill'
p1687
sg5
S'no run'
p1688
sg7
S' Ashwin'
p1689
sg9
S'\nthis time driven to short cover point to bring the 30th over to an end  </p>]'
p1690
ssS'29.1'
p1691
(dp1692
g3
S'Williamson'
p1693
sg5
S'1 run'
p1694
sg7
S' Ashwin'
p1695
sg9
S'\nadvances down to play this one to long-on  </p>]'
p1696
ssS'29.3'
p1697
(dp1698
g3
S'Guptill'
p1699
sg5
S'1 run'
p1700
sg7
S' Ashwin'
p1701
sg9
S'\nplayed on the front foot behind square  </p>]'
p1702
ssS'29.2'
p1703
(dp1704
g3
S'Guptill'
p1705
sg5
S'2 runs'
p1706
sg7
S' Ashwin'
p1707
sg9
S'\nthis time eases this leg side delivery towards fine leg  with backward square able to rein it in time  </p>]'
p1708
ssS'15.1'
p1709
(dp1710
g3
S'Williamson'
p1711
sg5
S'1 run'
p1712
sg7
S' Ashwin'
p1713
sg9
S'\nsteered down to long-on for one  </p>]'
p1714
ssS'15.2'
p1715
(dp1716
g3
S'Guptill'
p1717
sg5
S'no run'
p1718
sg7
S' Ashwin'
p1719
sg9
S"\nturned away to the leg side  but can't get it past backward square  </p>]"
p1720
ssS'15.3'
p1721
(dp1722
g3
S'Guptill'
p1723
sg5
S'1 run'
p1724
sg7
S' Ashwin'
p1725
sg9
S'\nneedled down to long-on for another single  </p>]'
p1726
ssS'15.4'
p1727
(dp1728
g3
S'Williamson'
p1729
sg5
S'no run'
p1730
sg7
S' Ashwin'
p1731
sg9
S'\ntries to squirt this one away by using his feet to get this past backward point  but instead succeeds in finding the fielder straightaway  </p>]'
p1732
ssS'5.6'
p1733
(dp1734
g3
S'Williamson'
p1735
sg5
S'no run'
p1736
sg7
S' Mohammed Shami'
p1737
sg9
S"\ngoing down the leg side as this thuds into Kane's right pad  with Shami going for the appeal  but is turned down  </p>]"
p1738
ssS'7.57.57.57.57.57.57.57.57.57.5'
p1739
(dp1740
g3
S'Guptill'
p1741
sg5
g26
sg7
S' Aaron'
p1742
sg9
S'\nfires in a bouncer which travels quite high over the batsman as the umpire signals a wide  </p>]'
p1743
ssS'44.3'
p1744
(dp1745
g3
S'Southee'
p1746
sg5
S'no run'
p1747
sg7
S' Kumar'
p1748
sg9
S'\nnegotiates this one away to the leg side  </p>]'
p1749
ssS'49.4'
p1750
(dp1751
g3
S'Southee'
p1752
sg5
S'no run'
p1753
sg7
S' Mohammed Shami'
p1754
sg9
S'\nthis time tries for the swivel hook but is late on this short one on middle  </p>]'
p1755
ssS'48.2'
p1756
(dp1757
g3
S'Bennett'
p1758
sg5
S'no run'
p1759
sg7
S' Kumar'
p1760
sg9
S'\nslower ball on middle as Bennett once again ducks under it  </p>]'
p1761
ssS'48.3'
p1762
(dp1763
g3
S'Bennett'
p1764
sg5
S'1 run'
p1765
sg7
S' Kumar'
p1766
sg9
S'\nspeared in on the pads as Bennett squeaks this one away leg side for one  </p>]'
p1767
ssS'48.1'
p1768
(dp1769
g3
S'Bennett'
p1770
sg5
S'no run'
p1771
sg7
S' Kumar'
p1772
sg9
S'\nshort of a length and allowed through to the keeper as Bennett offers no shot  </p>]'
p1773
ssS'48.6'
p1774
(dp1775
g3
S'Southee'
p1776
sg5
g666
sg7
S' Kumar'
p1777
sg9
S'\nand Southee just clobbers this back of a length ball to deep midwicket  with this one sailing handsomely over the ropes. Yet another botched attempt by the Orange Brigade  </p>]'
p1778
ssS'48.4'
p1779
(dp1780
g3
S'Southee'
p1781
sg5
g121
sg7
S' Kumar'
p1782
sg9
S'\nslower ball outside off which is heaved away over long-on for a boundary. It also brings up the 300 for NZ  </p>]'
p1783
ssS'48.5'
p1784
(dp1785
g3
S'Southee'
p1786
sg5
S'no run'
p1787
sg7
S' Kumar'
p1788
sg9
S'\ncharges down the track to this back of a length delivery  but ends up getting a deflection off the toe-end behind to the keeper  who is able to stop it  </p>]'
p1789
ssS'47.4'
p1790
(dp1791
g3
S'Bennett'
p1792
sg5
S'no run'
p1793
sg7
S' Mohammed Shami'
p1794
sg9
S'\ndefended away by Bennett  </p>]'
p1795
ss.