(dp0
S'33.5'
p1
(dp2
S'to'
p3
S'Dhoni'
p4
sS'what'
p5
S'no run'
p6
sS'from'
p7
S' Bennett'
p8
sS'why'
p9
S"\ntries to slap this away on the off side  but doesn't get the ball very far  </p>]"
p10
ssS'35.2'
p11
(dp12
g3
S'Dhoni'
p13
sg5
S'no run'
p14
sg7
S' Anderson'
p15
sg9
S'\nends up slapping this back of a length ball straight back to Anderson  who fields it on his follow-through  </p>]'
p16
ssS'35.3'
p17
(dp18
g3
S'Dhoni'
p19
sg5
S'6 run'
p20
sg7
S' Anderson'
p21
sg9
S'\nright in the slot and Dhoni lifts this easily over long-off to bring up a <b>53rd ODI fifty</b>  and an invaluable one for India in terms of the context  </p>]'
p22
ssS'35.1'
p23
(dp24
g3
S'Ashwin'
p25
sg5
S'1 run'
p26
sg7
S' Anderson'
p27
sg9
S'\nbegins with a length ball which is helped to the leg side for a single  </p>]'
p28
ssS'35.6'
p29
(dp30
g3
S'Ashwin'
p31
sg5
S'1 run'
p32
sg7
S' Anderson'
p33
sg9
S'\nAshwin on the back foot as he plays a pick-up shot down to deep square leg  </p>]'
p34
ssS'35.4'
p35
(dp36
g3
S'Dhoni'
p37
sg5
S'OUT'
p38
sg7
S' Anderson'
p39
sg9
S"\nand Southee takes a blinder of a catch at deep square leg as Dhoni is enticed into a pull shot which he has smashed towards that direction  with Southee getting to it before kneeling down and sticking his right hand out to pluck this. Sensational catch to get rid of the Indian captain  and suddenly India's hopes feel dashed  </p>]"
p40
ssS'35.5'
p41
(dp42
g3
S'Jadeja'
p43
sg5
S'1 run'
p44
sg7
S' Anderson'
p45
sg9
S'\nJadeja just pushes this casually towards the leg side for one  </p>]'
p46
ssS'7.2'
p47
(dp48
g3
S'Sharma'
p49
sg5
S'no run'
p50
sg7
S' Bennett'
p51
sg9
S'\ndefends this length ball to the off side  </p>]'
p52
ssS'6.6'
p53
(dp54
g3
S'Dhawan'
p55
sg5
S'no run'
p56
sg7
S' Southee'
p57
sg9
S'\nopens the face to run this down to short third man for one  </p>]'
p58
ssS'12.1'
p59
(dp60
g3
S'Kohli'
p61
sg5
S'no run'
p62
sg7
S' Bennett'
p63
sg9
S'\nKohli has a waft at this back of a length delivery outside off  but is fortunate to not catch an edge  </p>]'
p64
ssS'7.1'
p65
(dp66
g3
S'Sharma'
p67
sg5
S'no run'
p68
sg7
S' Bennett'
p69
sg9
S'\nshort of a length outside off which is parried to the off side  </p>]'
p70
ssS'6.3'
p71
(dp72
g3
S'Sharma'
p73
sg5
S'no run'
p74
sg7
S' Southee'
p75
sg9
S'\nlooks to cut this one away through point  but Kane is all over this  </p>]'
p76
ssS'12.6'
p77
(dp78
g3
S'Kohli'
p79
sg5
S'no run'
p80
sg7
S' Bennett'
p81
sg9
S'\nand he completes yet another maiden over to get his comeback off to a good start as Kohli chooses to leave this one outside off alone  </p>]'
p82
ssS'6.1'
p83
(dp84
g3
S'Sharma'
p85
sg5
S'no run'
p86
sg7
S' Southee'
p87
sg9
S'\nplayed off the back foot to the off side  </p>]'
p88
ssS'12.4'
p89
(dp90
g3
S'Kohli'
p91
sg5
S'no run'
p92
sg7
S' Bennett'
p93
sg9
S'\nplayed away to the fielder at point  </p>]'
p94
ssS'37.1'
p95
(dp96
g3
S'Ashwin'
p97
sg5
S'1 run'
p98
sg7
S' Anderson'
p99
sg9
S'\non the back foot to this shorter one as he pulls it emphatically towards deep fine leg  who fumbles it on the first attempt  </p>]'
p100
ssS'37.2'
p101
(dp102
g3
S'Jadeja'
p103
sg5
S'no run'
p104
sg7
S' Anderson'
p105
sg9
S'\nslower ball tailing towards the leg pad as Jadeja misses the line  with the ball striking that pad  but this was always going down the leg side  </p>]'
p106
ssS'37.3'
p107
(dp108
g3
S'Jadeja'
p109
sg5
S'1 run  </p>]'
p110
sg7
S' Anderson'
p111
sg9
S''
p112
ssS'37.4'
p113
(dp114
g3
S'Ashwin'
p115
sg5
S'4 run'
p116
sg7
S' Anderson'
p117
sg9
S'\ndrags this slower ball down the leg side as Ashwin helps it along to the fine leg boundary  getting it past backward square for good measure  </p>]'
p118
ssS'37.5'
p119
(dp120
g3
S'Ashwin'
p121
sg5
S'1 run'
p122
sg7
S' Anderson'
p123
sg9
S'\nthis time chooses to run it down to third man for one  </p>]'
p124
ssS'37.6'
p125
(dp126
g3
S'Jadeja'
p127
sg5
g116
sg7
S' Anderson'
p128
sg9
S'\nroom outside off  off the back foot  as he glides this to the third man boundary  </p>]'
p129
ssS'10.1'
p130
(dp131
g3
S'Kohli'
p132
sg5
S'no run'
p133
sg7
S' Bennett'
p134
sg9
S'\nback of a length and defended by Kohli to the off side  </p>]'
p135
ssS'17.317.317.317.317.317.317.317.317.317.3'
p136
(dp137
g3
S'Rahane'
p138
sg5
S'1 wide'
p139
sg7
S' Anderson'
p140
sg9
S'\ngets this one down the leg side as the umpire signals a wide  </p>]'
p141
ssS'10.3'
p142
(dp143
g3
S'Kohli'
p144
sg5
S'no run'
p145
sg7
S' Bennett'
p146
sg9
S'\nKohli exercises good judgment as he lets this one  honing in around off  to go through to the keeper  </p>]'
p147
ssS'10.2'
p148
(dp149
g3
S'Kohli'
p150
sg5
S'no run'
p151
sg7
S' Bennett'
p152
sg9
S'\nallows this shorter one to rush past him to the keeper  </p>]'
p153
ssS'10.5'
p154
(dp155
g3
S'Kohli'
p156
sg5
S'no run'
p157
sg7
S' Bennett'
p158
sg9
S'\nspears one in on and around off as this is pummeled back to the bowler  with the crowd uttering a collective gasp  </p>]'
p159
ssS'10.4'
p160
(dp161
g3
S'Kohli'
p162
sg5
S'no run'
p163
sg7
S' Bennett'
p164
sg9
S'\ndefended solidly on the front foot by Kohli  </p>]'
p165
ssS'10.6'
p166
(dp167
g3
S'Kohli'
p168
sg5
S'no run'
p169
sg7
S' Bennett'
p170
sg9
S'\nwell bowled by Bennett as he finishes off the over as a maiden  </p>]'
p171
ssS'43.1'
p172
(dp173
g3
S'Jadeja'
p174
sg5
S'no run'
p175
sg7
S' Bennett'
p176
sg9
S'\nbegins with a short one which has Jadeja trying in vain to ramp it over the slips  </p>]'
p177
ssS'33.3'
p178
(dp179
g3
S'Ashwin'
p180
sg5
g116
sg7
S' Bennett'
p181
sg9
S'\nlength on the pads which is timed beautifully down to deep midwicket for a boundary  </p>]'
p182
ssS'44.6'
p183
(dp184
g3
S'Jadeja'
p185
sg5
S'1 run'
p186
sg7
S' NL McCullum'
p187
sg9
S'\npress forward and played with the soft hands for a single  </p>]'
p188
ssS'16.6'
p189
(dp190
g3
S'Raina'
p191
sg5
S'no run'
p192
sg7
S' Bennett'
p193
sg9
S"\npushes this one off the back foot to the leg side  but can't pinch a single  </p>]"
p194
ssS'16.5'
p195
(dp196
g3
S'Raina'
p197
sg5
S'no run'
p198
sg7
S' Bennett'
p199
sg9
S'\nonce again defended by Raina  </p>]'
p200
ssS'16.4'
p201
(dp202
g3
S'Raina'
p203
sg5
S'no run'
p204
sg7
S' Bennett'
p205
sg9
S'\non the back foot to this short one from Bennett  </p>]'
p206
ssS'16.3'
p207
(dp208
g3
S'Rahane'
p209
sg5
S'1 run'
p210
sg7
S' Bennett'
p211
sg9
S'\neases this one off the back foot behind square on the leg side  </p>]'
p212
ssS'16.2'
p213
(dp214
g3
S'Rahane'
p215
sg5
S'no run'
p216
sg7
S' Bennett'
p217
sg9
S'\ngoes for an ambitious cut outside off as Bennett beats him for pace  </p>]'
p218
ssS'16.1'
p219
(dp220
g3
S'Rahane'
p221
sg5
S'no run'
p222
sg7
S' Bennett'
p223
sg9
S'\nback of a length outside off which is played towards the off side  </p>]'
p224
ssS'44.1'
p225
(dp226
g3
S'Ashwin'
p227
sg5
g20
sg7
S' NL McCullum'
p228
sg9
S'\nAshwin where did that come from? He just steps down the track to heave Nathan well over the corporate boxes for a fantastic six! This one just seemed to climb and climb  </p>]'
p229
ssS'43.2'
p230
(dp231
g3
S'Jadeja'
p232
sg5
g116
sg7
S' Bennett'
p233
sg9
S'\nshort and slanting away as Jadeja is able to get under this and ramp it wide of third man to the rope. Third man puts in a hopeful dive  but that is exactly what it was... hopeful  </p>]'
p234
ssS'43.4'
p235
(dp236
g3
S'Jadeja'
p237
sg5
S'1 run'
p238
sg7
S' Bennett'
p239
sg9
S'\nends up fending away this latest one from Bennett to the leg side  and is able to sneak in quick single as the ball comes to a dead stop away from any close in fielders  </p>]'
p240
ssS'14.4'
p241
(dp242
g3
S'Kohli'
p243
sg5
S'no run'
p244
sg7
S' Bennett'
p245
sg9
S'\nand again gets an inside edge to this one he was looking to open the face to  </p>]'
p246
ssS'45.3'
p247
(dp248
g3
S'Kumar'
p249
sg5
g116
sg7
S' Bennett'
p250
sg9
S'\nshort and just outside off as Kumar is able to bend his back before finessing this past the slip fielder to the third man boundary. Inventive shot that from Bhuvi  </p>]'
p251
ssS'41.441.441.441.441.441.441.441.441.441.4'
p252
(dp253
g3
S'Ashwin'
p254
sg5
g139
sg7
S' Southee'
p255
sg9
S'\nwell wide outside off as Billy signals to the crowd  </p>]'
p256
ssS'45.1'
p257
(dp258
g3
S'Jadeja'
p259
sg5
S'1 leg bye'
p260
sg7
S' Bennett'
p261
sg9
S'\nhelped along to the leg side by Jadeja for a single. This brings Bhuvi on strike  </p>]'
p262
ssS'45.6'
p263
(dp264
g3
S'Shami'
p265
sg5
S'no run'
p266
sg7
S' Bennett'
p267
sg9
S'\nfull and straight as Shami just hits this to the leg side  </p>]'
p268
ssS'45.5'
p269
(dp270
g3
S'Jadeja'
p271
sg5
S'1 run'
p272
sg7
S' Bennett'
p273
sg9
S'\nbacks away to get in line with this leg side bound delivery before working it away down to long-on for a single  </p>]'
p274
ssS'45.4'
p275
(dp276
g3
S'Kumar'
p277
sg5
g38
sg7
S' Bennett'
p278
sg9
S"\nback of a length and Kumar has no choice but to go after it  but doesn't quite get enough meat on it as this spoons harmlessly over to the long-on area  with mid-on doubling back to claim this one  </p>]"
p279
ssS'26.6'
p280
(dp281
g3
S'Raina'
p282
sg5
S'2 runs'
p283
sg7
S' NL McCullum'
p284
sg9
S"\nshimmies down the track as he lofts this one towards the gap at deep extra-cover. Doesn't quite get enough on it  however  for it to reach the boundary  </p>]"
p285
ssS'26.4'
p286
(dp287
g3
S'Raina'
p288
sg5
S'no run'
p289
sg7
S' NL McCullum'
p290
sg9
S'\ndefended by Raina on the front foot  </p>]'
p291
ssS'26.5'
p292
(dp293
g3
S'Raina'
p294
sg5
S'no run'
p295
sg7
S' NL McCullum'
p296
sg9
S'\nplayed away to the off side  </p>]'
p297
ssS'26.2'
p298
(dp299
g3
S'Raina'
p300
sg5
S'no run'
p301
sg7
S' NL McCullum'
p302
sg9
S'\nuses his feet to defend this one back to the bowler  </p>]'
p303
ssS'26.3'
p304
(dp305
g3
S'Raina'
p306
sg5
S'2 runs'
p307
sg7
S' NL McCullum'
p308
sg9
S'\ngives this some air as Raina cuts this away to deep point  with a misfield from Guptill affording the second run  </p>]'
p309
ssS'26.1'
p310
(dp311
g3
S'Raina'
p312
sg5
S'no run'
p313
sg7
S' NL McCullum'
p314
sg9
S'\npunched off the back foot straight to short cover point  </p>]'
p315
ssS'14.5'
p316
(dp317
g3
S'Kohli'
p318
sg5
g38
sg7
S' Bennett'
p319
sg9
S'\nand Bennett gets the Big One as he has Kohli  who was looking quite scratchy in his short stint  edge a good length ball from just outside off to the keeper  who takes the catch comfortably. Kohli knows it right away as he trudges back to the keeper  while Bennett kicks off some rather gregarious celebrations from the New Zealanders  </p>]'
p320
ssS'12.3'
p321
(dp322
g3
S'Kohli'
p323
sg5
S'no run'
p324
sg7
S' Bennett'
p325
sg9
S'\nlength ball coming back into Kohli as he is well aware of where his off stump is  </p>]'
p326
ssS'45.2'
p327
(dp328
g3
S'Kumar'
p329
sg5
S'no run'
p330
sg7
S' Bennett'
p331
sg9
S'\nsends a fierce cover drive straight to point  who is able to get behind it  </p>]'
p332
ssS'14.6'
p333
(dp334
g3
S'Raina'
p335
sg5
S'1 run'
p336
sg7
S' Bennett'
p337
sg9
S'\ngets a short one from Bennett which hurries on him as this is played away to the leg side  </p>]'
p338
ssS'14.1'
p339
(dp340
g3
S'Kohli'
p341
sg5
S'1 run'
p342
sg7
S' Bennett'
p343
sg9
S'\nrun down to third man for a single  </p>]'
p344
ssS'14.3'
p345
(dp346
g3
S'Kohli'
p347
sg5
S'no run'
p348
sg7
S' Bennett'
p349
sg9
S'\nand Kohli almost spells his own downfall as this is dead-batted by Kohli off the front foot  with the ball just bouncing over the stumps. Could have been really unlucky if it had rolled on somehow  </p>]'
p350
ssS'12.2'
p351
(dp352
g3
S'Kohli'
p353
sg5
S'no run'
p354
sg7
S' Bennett'
p355
sg9
S'\nbowls this one wider outside off  but Kohli can not be coaxed into having a go  </p>]'
p356
ssS'24.4'
p357
(dp358
g3
S'Raina'
p359
sg5
S'no run'
p360
sg7
S' McClenaghan'
p361
sg9
S'\ndriven down firmly to short cover point by Raina  </p>]'
p362
ssS'24.5'
p363
(dp364
g3
S'Raina'
p365
sg5
S'no run'
p366
sg7
S' McClenaghan'
p367
sg9
S"\nRaina tries in vain to angle this one away through point  but can't get it past the fielder  </p>]"
p368
ssS'24.6'
p369
(dp370
g3
S'Raina'
p371
sg5
S'1 run'
p372
sg7
S' McClenaghan'
p373
sg9
S'\nspears in a yorker on middle and leg as Raina is able to dig it out towards midwicket  </p>]'
p374
ssS'14.2'
p375
(dp376
g3
S'Rahane'
p377
sg5
S'1 run'
p378
sg7
S' Bennett'
p379
sg9
S'\npushed off the back foot to the leg side for a single  </p>]'
p380
ssS'6.5'
p381
(dp382
g3
S'Dhawan'
p383
sg5
g20
sg7
S' Southee'
p384
sg9
S"\nthis time it is Dhawan's turn to break loose as he shimmies down the track before heaving Southee down the straight boundary for six  </p>]"
p385
ssS'24.2'
p386
(dp387
g3
S'Raina'
p388
sg5
S'no run'
p389
sg7
S' McClenaghan'
p390
sg9
S'\nsteps down the track as he looks to club this over the covers  </p>]'
p391
ssS'24.3'
p392
(dp393
g3
S'Raina'
p394
sg5
S'2 runs'
p395
sg7
S' McClenaghan'
p396
sg9
S'\nshort again and Raina is able to maneuver this through midwicket with a controlled pull  </p>]'
p397
ssS'22.2'
p398
(dp399
g3
S'Dhoni'
p400
sg5
S'2 runs'
p401
sg7
S' McClenaghan'
p402
sg9
S'\nfull from McClenaghan as Dhoni clips this through long-on for a couple  </p>]'
p403
ssS'22.3'
p404
(dp405
g3
S'Dhoni'
p406
sg5
S'no run'
p407
sg7
S' McClenaghan'
p408
sg9
S'\ndriven on the front foot towards short cover  </p>]'
p409
ssS'49.5'
p410
(dp411
g3
S'Jadeja'
p412
sg5
g20
sg7
S' Anderson'
p413
sg9
S'\nJadeja has just transcended a level as he simply hammers this short of a length ball right over the midwicket boundary for a six. The Indian contingent in the crowd go berserk. Now they need just 2 off 1. Can we possibly get a tied game now?  </p>]'
p414
ssS'6.4'
p415
(dp416
g3
S'Sharma'
p417
sg5
S'1 run'
p418
sg7
S' Southee'
p419
sg9
S'\nruns this one down by opening the face to third man  </p>]'
p420
ssS'22.6'
p421
(dp422
g3
S'Dhoni'
p423
sg5
S'1 run'
p424
sg7
S' McClenaghan'
p425
sg9
S'\non the back foot as this is played away behind square on the leg side  </p>]'
p426
ssS'49.2'
p427
(dp428
g3
S'Jadeja'
p429
sg5
S'no run'
p430
sg7
S' Anderson'
p431
sg9
S'\nbacks away but cannot connect as he goes for a hard slap over the covers. Still need 13 off 4  </p>]'
p432
ssS'22.4'
p433
(dp434
g3
S'Dhoni'
p435
sg5
S'no run'
p436
sg7
S' McClenaghan'
p437
sg9
S'\nbowls this a touch straight as Dhoni looks to short-arm pull  </p>]'
p438
ssS'22.5'
p439
(dp440
g3
S'Dhoni'
p441
sg5
S'no run'
p442
sg7
S' McClenaghan'
p443
sg9
S'\ndriven by Dhoni  but is unlucky to find the fielder on the off side  </p>]'
p444
ssS'7.6'
p445
(dp446
g3
S'Sharma'
p447
sg5
g116
sg7
S' Bennett'
p448
sg9
S'\nangling down the pads as Rohit simply helps this along to the fine leg boundary  </p>]'
p449
ssS'43.6'
p450
(dp451
g3
S'Ashwin'
p452
sg5
S'1 run'
p453
sg7
S' Bennett'
p454
sg9
S'\nlow full toss outside off which is worked away down to midwicket for one  </p>]'
p455
ssS'6.2'
p456
(dp457
g3
S'Sharma'
p458
sg5
S'no run'
p459
sg7
S' Southee'
p460
sg9
S'\nshort one outside off which has Rohit dropping his wrists to  </p>]'
p461
ssS'7.4'
p462
(dp463
g3
S'Sharma'
p464
sg5
g20
sg7
S' Bennett'
p465
sg9
S'\ntoo full from Bennett as Rohit slams him effortlessly to the long-on boundary for his fourth six  </p>]'
p466
ssS'34.6'
p467
(dp468
g3
S'Dhoni'
p469
sg5
S'no run'
p470
sg7
S' NL McCullum'
p471
sg9
S'\npunched off the back foot towards mid-off to end the over  </p>]'
p472
ssS'34.5'
p473
(dp474
g3
S'Dhoni'
p475
sg5
S'no run'
p476
sg7
S' NL McCullum'
p477
sg9
S'\nDhoni ends up playing this low full toss straight back to the bowler  </p>]'
p478
ssS'7.5'
p479
(dp480
g3
S'Sharma'
p481
sg5
S'no run'
p482
sg7
S' Bennett'
p483
sg9
S'\nand follows it up with a crisp back foot drive  but is unlucky to find point  </p>]'
p484
ssS'34.3'
p485
(dp486
g3
S'Dhoni'
p487
sg5
S'1 run'
p488
sg7
S' NL McCullum'
p489
sg9
S'\nsteered away behind square for one  </p>]'
p490
ssS'34.2'
p491
(dp492
g3
S'Dhoni'
p493
sg5
S'no run'
p494
sg7
S' NL McCullum'
p495
sg9
S'\neases this one away to the leg side for one  </p>]'
p496
ssS'34.1'
p497
(dp498
g3
S'Ashwin'
p499
sg5
S'1 run'
p500
sg7
S' NL McCullum'
p501
sg9
S'\ndriven past the bowler to long-on for one  </p>]'
p502
ssS'24.1'
p503
(dp504
g3
S'Raina'
p505
sg5
g116
sg7
S' McClenaghan'
p506
sg9
S'\ngoes for the bait as he attacks this short ball  going for the hook  and Southee  coming in from a squarish position  is unlucky not to get a hand on it. Good fortune there for Raina  </p>]'
p507
ssS'3.6'
p508
(dp509
g3
S'Sharma'
p510
sg5
S'no run'
p511
sg7
S' McClenaghan'
p512
sg9
S'\nstrides out to defend this latest offering  </p>]'
p513
ssS'3.4'
p514
(dp515
g3
S'Sharma'
p516
sg5
S'1 run'
p517
sg7
S' McClenaghan'
p518
sg9
S'\nRohit rocks back to pull this short one from McClenaghan to deep fine leg  with the fielder able to stop it before the boundary  </p>]'
p519
ssS'3.5'
p520
(dp521
g3
S'Dhawan'
p522
sg5
S'1 run'
p523
sg7
S' McClenaghan'
p524
sg9
S'\nclipped off the pads to the leg side for a quick single  </p>]'
p525
ssS'3.2'
p526
(dp527
g3
S'Sharma'
p528
sg5
S'no run'
p529
sg7
S' McClenaghan'
p530
sg9
S"\ndrives this next one solidly to short cover  who throws down the non-striker's stumps  just to make sure there is no funny business going on  </p>]"
p531
ssS'3.3'
p532
(dp533
g3
S'Sharma'
p534
sg5
S'no run'
p535
sg7
S' McClenaghan'
p536
sg9
S'\nonce again Roht into position to keep this one out  </p>]'
p537
ssS'42.3'
p538
(dp539
g3
S'Jadeja'
p540
sg5
S'1 run'
p541
sg7
S' NL McCullum'
p542
sg9
S'\n<b>dropped</b> Jadeja given the kind of ball to go after  and he does  and is lucky not to hole out to Southee at long-on as he converges on it before letting this one drop  </p>]'
p543
ssS'3.1'
p544
(dp545
g3
S'Sharma'
p546
sg5
S'no run'
p547
sg7
S' McClenaghan'
p548
sg9
S'\nfuller one outside off which is defended to the man at point  </p>]'
p549
ssS'2.3'
p550
(dp551
g3
S'Dhawan'
p552
sg5
S'no run'
p553
sg7
S' Southee'
p554
sg9
S'\nnicely push-driven on the up  but straight to extra cover  </p>]'
p555
ssS'2.2'
p556
(dp557
g3
S'Dhawan'
p558
sg5
S'no run'
p559
sg7
S' Southee'
p560
sg9
S"\nsome swing from back of a length  hits Dhawan's thigh pad  </p>]"
p561
ssS'2.1'
p562
(dp563
g3
S'Dhawan'
p564
sg5
S'no run'
p565
sg7
S' Southee'
p566
sg9
S'\nbouncer  at his body  Dhawan ducks under it  </p>]'
p567
ssS'36.6'
p568
(dp569
g3
S'Ashwin'
p570
sg5
S'1 run'
p571
sg7
S' McClenaghan'
p572
sg9
S'\nflicked away to square leg for one to bring the over to an end  </p>]'
p573
ssS'36.1'
p574
(dp575
g3
S'Ashwin'
p576
sg5
S'no run'
p577
sg7
S' McClenaghan'
p578
sg9
S'\ndefends this one to the off side  </p>]'
p579
ssS'2.6'
p580
(dp581
g3
S'Dhawan'
p582
sg5
S'2 runs'
p583
sg7
S' Southee'
p584
sg9
S'\nlength ball on the pads  whipped away through midwicket  </p>]'
p585
ssS'2.5'
p586
(dp587
g3
S'Dhawan'
p588
sg5
g116
sg7
S' Southee'
p589
sg9
S'\nshort  chest-high  Dhawan manages to pull this well  over square leg. Not the best of timings  but still safe enough and far enough  </p>]'
p590
ssS'2.4'
p591
(dp592
g3
S'Dhawan'
p593
sg5
S'no run'
p594
sg7
S' Southee'
p595
sg9
S'\nshort of a length  middle and off  defended from the crease  </p>]'
p596
ssS'20.1'
p597
(dp598
g3
S'Raina'
p599
sg5
S'no run'
p600
sg7
S' McClenaghan'
p601
sg9
S'\nlength outside off which Raina tries to blast over the covers  </p>]'
p602
ssS'20.2'
p603
(dp604
g3
S'Raina'
p605
sg5
S'3 runs'
p606
sg7
S' McClenaghan'
p607
sg9
S'\nshort again from Mitchell as Raina places this down to deep midwicket with a pull that is played into the ground. Anderson does well to track it close to the boundary  and is able to put in a dive just inches before the rope to release it back  with replays confirming that  </p>]'
p608
ssS'20.3'
p609
(dp610
g3
S'Dhoni'
p611
sg5
S'1 run'
p612
sg7
S' McClenaghan'
p613
sg9
S'\nthis time played away to the leg side for a quick single  </p>]'
p614
ssS'20.4'
p615
(dp616
g3
S'Raina'
p617
sg5
S'no run'
p618
sg7
S' McClenaghan'
p619
sg9
S'\nstrides out to meet this one as this is directed towards point  </p>]'
p620
ssS'20.5'
p621
(dp622
g3
S'Raina'
p623
sg5
S'1 run'
p624
sg7
S' McClenaghan'
p625
sg9
S'\nplays this one with soft hands behind square on the leg side  </p>]'
p626
ssS'20.6'
p627
(dp628
g3
S'Dhoni'
p629
sg5
S'1 leg bye'
p630
sg7
S' McClenaghan'
p631
sg9
S'\non the back foot as he whisks this away to the leg side for one  </p>]'
p632
ssS'27.227.227.227.227.227.227.227.227.227.2'
p633
(dp634
g3
S'Raina'
p635
sg5
g139
sg7
S' Southee'
p636
sg9
S'\ndown the leg side as Raina goes for a hook  with the ball continuing through to the keeper. Southee appeals but the umpire signals a wide. Replays show that there may have contact with the bottom of the glove  but hard to determine  </p>]'
p637
ssS'39.2'
p638
(dp639
g3
S'Jadeja'
p640
sg5
S'1 run'
p641
sg7
S' Southee'
p642
sg9
S'\nanother low full toss which Jadeja eases to the leg side for one  </p>]'
p643
ssS'46.3'
p644
(dp645
g3
S'Shami'
p646
sg5
S'1 run'
p647
sg7
S' McClenaghan'
p648
sg9
S'\nshortish length angling in on the batsman as Shami plays this with soft hands before setting off for the tight single  with Jadeja all but out if the direct hit had been made  </p>]'
p649
ssS'42.1'
p650
(dp651
g3
S'Jadeja'
p652
sg5
S'1 run'
p653
sg7
S' NL McCullum'
p654
sg9
S'\ncut away on the back foot down to sweeper cover  </p>]'
p655
ssS'22.1'
p656
(dp657
g3
S'Dhoni'
p658
sg5
S'no run'
p659
sg7
S' McClenaghan'
p660
sg9
S'\ndefended by Raina back towards the bowler  </p>]'
p661
ssS'49.3'
p662
(dp663
g3
S'Jadeja'
p664
sg5
S'no run'
p665
sg7
S' Anderson'
p666
sg9
S'\nbacks away but realises the angle is closing in on him as he opens the face to run this to third man  but refuses the single. Looks like he has learned from El Capitano  </p>]'
p667
ssS'39.1'
p668
(dp669
g3
S'Ashwin'
p670
sg5
S'1 run'
p671
sg7
S' Southee'
p672
sg9
S'\nlow full toss which is directed down to long-on  </p>]'
p673
ssS'21.5'
p674
(dp675
g3
S'Raina'
p676
sg5
S'1 run'
p677
sg7
S' Williamson'
p678
sg9
S'\nthis time uses his feet to punch this down the ground to long-off  </p>]'
p679
ssS'49.6'
p680
(dp681
g3
S'Jadeja'
p682
sg5
S'1 run'
p683
sg7
S' Anderson'
p684
sg9
S"\nand Jadeja succeeds in getting the tying run as he works this fuller one away towards mid-off  with silly mid-off cutting it off  but unable to stop the single. They don't bother to go back for the second as they know they are still in the series  </p>]"
p685
ssS'49.1'
p686
(dp687
g3
S'Jadeja'
p688
sg5
g116
sg7
S' Anderson'
p689
sg9
S'\nback of a length and just clubbed away by Jadeja to the deep midwicket boundary. Just what India needed. Anderson now under pressure for the remainder of the over  </p>]'
p690
ssS'40.2'
p691
(dp692
g3
S'Jadeja'
p693
sg5
S'no run'
p694
sg7
S' NL McCullum'
p695
sg9
S'\ngets this one to turn away from Jadeja as he pressed forward to defend  </p>]'
p696
ssS'40.3'
p697
(dp698
g3
S'Jadeja'
p699
sg5
S'1 run'
p700
sg7
S' NL McCullum'
p701
sg9
S'\ngets some turn again outside off as Jadeja cuts this away past point  </p>]'
p702
ssS'40.1'
p703
(dp704
g3
S'Ashwin'
p705
sg5
S'1 run'
p706
sg7
S' NL McCullum'
p707
sg9
S'\ndriven through the off side for one  </p>]'
p708
ssS'40.6'
p709
(dp710
g3
S'Ashwin'
p711
sg5
g116
sg7
S' NL McCullum'
p712
sg9
S'\nand gets the reverse sweep out as Ashwin picks this from outside off and gets it over backward point to find the boundary. Also brings up the <b>fifty</b> for Ashwin  </p>]'
p713
ssS'40.4'
p714
(dp715
g3
S'Ashwin'
p716
sg5
S'1 run'
p717
sg7
S' NL McCullum'
p718
sg9
S'\nAshwin down the track before adjusting to flick this behind square  </p>]'
p719
ssS'40.5'
p720
(dp721
g3
S'Jadeja'
p722
sg5
S'1 run'
p723
sg7
S' NL McCullum'
p724
sg9
S'\neased off the back foot by Jadeja to short third man  </p>]'
p725
ssS'27.3'
p726
(dp727
g3
S'Dhoni'
p728
sg5
S'1 run'
p729
sg7
S' Southee'
p730
sg9
S'\ngoes for the attempted yorker as Dhoni clips this one through midwicket  </p>]'
p731
ssS'27.2'
p732
(dp733
g3
S'Raina'
p734
sg5
S'1 run'
p735
sg7
S' Southee'
p736
sg9
S'\nangles this one outside off to the fielder at third man  </p>]'
p737
ssS'27.1'
p738
(dp739
g3
S'Dhoni'
p740
sg5
S'1 run'
p741
sg7
S' Southee'
p742
sg9
S'\nturns this one away to the leg side for a quick single  </p>]'
p743
ssS'21.6'
p744
(dp745
g3
S'Dhoni'
p746
sg5
S'1 run'
p747
sg7
S' Williamson'
p748
sg9
S'\nplayed away off the back foot by the India captain as the fielder on the leg side makes a mess of it  allowing for a second to be taken  </p>]'
p749
ssS'43.3'
p750
(dp751
g3
S'Jadeja'
p752
sg5
S'no run'
p753
sg7
S' Bennett'
p754
sg9
S"\nfull and on the pads as Jadeja had no idea where that had gone  but he still goes for the run when he sees Ashwin hustling to the other end  who puts in a dive as he sees the close in fielder make an under-arm attempt at the striker's end.  </p>]"
p755
ssS'27.6'
p756
(dp757
g3
S'Dhoni'
p758
sg5
S'no run'
p759
sg7
S' Southee'
p760
sg9
S'\nand is able to finish off the over with a dot ball  </p>]'
p761
ssS'27.5'
p762
(dp763
g3
S'Ashwin'
p764
sg5
S'1 run'
p765
sg7
S' Southee'
p766
sg9
S'\nlow full toss which is clipped to midwicket  </p>]'
p767
ssS'27.4'
p768
(dp769
g3
S'Raina'
p770
sg5
g38
sg7
S' Southee'
p771
sg9
S'\nand there goes Raina in trademark style as he goes for the pull but gets a feather of an edge on it which carries to Ronchi behind  </p>]'
p772
ssS'43.543.543.543.543.543.543.543.543.543.5'
p773
(dp774
g3
S'Ashwin'
p775
sg5
g139
sg7
S' Bennett'
p776
sg9
S'\nfollows Ashwin as he sees him backing away to the leg side  with Ashwin trying to help this over the keeper  but Bowden then surprises most by calling it a wide  it looks like it may have called though because of the height  which is definitely a fair call upon viewing the replay  </p>]'
p777
ssS'21.1'
p778
(dp779
g3
S'Dhoni'
p780
sg5
S'no run'
p781
sg7
S' Williamson'
p782
sg9
S'\nbegins with one that is turned away to the leg side  </p>]'
p783
ssS'42.2'
p784
(dp785
g3
S'Ashwin'
p786
sg5
S'1 run'
p787
sg7
S' NL McCullum'
p788
sg9
S'\nlooks to paddle this one fine  but ends up hitting a bit more squarer than he wanted  </p>]'
p789
ssS'12.5'
p790
(dp791
g3
S'Kohli'
p792
sg5
S'no run'
p793
sg7
S' Bennett'
p794
sg9
S'\nshort of a length outside off which is again played towards point  </p>]'
p795
ssS'42.4'
p796
(dp797
g3
S'Ashwin'
p798
sg5
S'1 bye'
p799
sg7
S' NL McCullum'
p800
sg9
S'\n<b>missed stumping</b> what are you doing NZ? now Ronchi misses a dolly of a stumping as Ashwin advances down the track but plays the wrong line  </p>]'
p801
ssS'30.4'
p802
(dp803
g3
S'Ashwin'
p804
sg5
S'no run'
p805
sg7
S' NL McCullum'
p806
sg9
S'\nlooks to cut this away off the back foot through point  </p>]'
p807
ssS'42.6'
p808
(dp809
g3
S'Ashwin'
p810
sg5
S'no run'
p811
sg7
S' NL McCullum'
p812
sg9
S'\npitches this one outside leg as this strikes  with Nathan going for an appeal  but the umpire is not at all interested  </p>]'
p813
ssS'25.1'
p814
(dp815
g3
S'Raina'
p816
sg5
S'1 leg bye'
p817
sg7
S' Southee'
p818
sg9
S'\nstrays down the leg side as Raina gets a bat on it before setting off for a quick single  </p>]'
p819
ssS'25.3'
p820
(dp821
g3
S'Dhoni'
p822
sg5
S'1 run'
p823
sg7
S' Southee'
p824
sg9
S'\nfollows this short  leg side bound delivery as he helps it along to fine leg  </p>]'
p825
ssS'25.2'
p826
(dp827
g3
S'Dhoni'
p828
sg5
S'no run  </p>]'
p829
sg7
S' Southee'
p830
sg9
g112
ssS'25.5'
p831
(dp832
g3
S'Dhoni'
p833
sg5
g116
sg7
S' Southee'
p834
sg9
S'\nshort from Southee and pulled away comfortably by Dhoni through the gap in fine leg  </p>]'
p835
ssS'25.4'
p836
(dp837
g3
S'Raina'
p838
sg5
S'1 run'
p839
sg7
S' Southee'
p840
sg9
S'\nglanced down to fine leg with ease by Raina  </p>]'
p841
ssS'25.6'
p842
(dp843
g3
S'Dhoni'
p844
sg5
S'no run'
p845
sg7
S' Southee'
p846
sg9
S'\ndefended off the back foot to bring the 26th over to an end  </p>]'
p847
ssS'21.2'
p848
(dp849
g3
S'Dhoni'
p850
sg5
S'1 run'
p851
sg7
S' Williamson'
p852
sg9
S'\nDhoni on the back foot as he whips this away to midwicket  </p>]'
p853
ssS'28.6'
p854
(dp855
g3
S'Dhoni'
p856
sg5
S'1 run'
p857
sg7
S' NL McCullum'
p858
sg9
S'\nflatter one from Nathan which is turned away to the leg side  </p>]'
p859
ssS'23.6'
p860
(dp861
g3
S'Dhoni'
p862
sg5
g20
sg7
S' Williamson'
p863
sg9
S'\nDhoni is dragging this match on as he pummels yet another six  this time over square leg  as he tries in vain to keep abreast with the required rate  </p>]'
p864
ssS'23.5'
p865
(dp866
g3
S'Raina'
p867
sg5
S'1 run'
p868
sg7
S' Williamson'
p869
sg9
S'\nRaina helps this away on the leg side for one  </p>]'
p870
ssS'23.4'
p871
(dp872
g3
S'Raina'
p873
sg5
S'no run'
p874
sg7
S' Williamson'
p875
sg9
S"\nuses his feet but can't get this drive past short cover  </p>]"
p876
ssS'23.3'
p877
(dp878
g3
S'Dhoni'
p879
sg5
S'1 run'
p880
sg7
S' Williamson'
p881
sg9
S'\nthis time swept round the corner for one  </p>]'
p882
ssS'23.2'
p883
(dp884
g3
S'Raina'
p885
sg5
S'1 run'
p886
sg7
S' Williamson'
p887
sg9
S'\ntucked away to the leg side for a single  </p>]'
p888
ssS'23.1'
p889
(dp890
g3
S'Dhoni'
p891
sg5
S'1 run'
p892
sg7
S' Williamson'
p893
sg9
S'\nand Dhoni charges him once more as he looks to clear midwicket  but instead hits this more towards square leg  </p>]'
p894
ssS'32.1'
p895
(dp896
g3
S'Dhoni'
p897
sg5
S'no run'
p898
sg7
S' NL McCullum'
p899
sg9
S'\nNathan continues to keep it tight as this is played back to him  </p>]'
p900
ssS'32.3'
p901
(dp902
g3
S'Dhoni'
p903
sg5
S'no run'
p904
sg7
S' NL McCullum'
p905
sg9
S'\nlooks to ease this one through the leg side  but silly mid-on is all over it  </p>]'
p906
ssS'32.2'
p907
(dp908
g3
S'Dhoni'
p909
sg5
S'2 runs'
p910
sg7
S' NL McCullum'
p911
sg9
S'\nthis time looks to turn it away round the corner  and is afforded the second when the first fielder approaching it fails to pick it up  </p>]'
p912
ssS'32.5'
p913
(dp914
g3
S'Ashwin'
p915
sg5
S'1 run'
p916
sg7
S' NL McCullum'
p917
sg9
S'\neased down to long-on for a single  </p>]'
p918
ssS'32.4'
p919
(dp920
g3
S'Dhoni'
p921
sg5
S'1 run'
p922
sg7
S' NL McCullum'
p923
sg9
S"\nfull on Dhoni's feet as he flicks this one to square leg  looking for the second  but Ashwin ends up slipping at the other end  and Dhoni  who is halfway down the track  has to run back at full tilt to make his ground before the incoming throw  </p>]"
p924
ssS'32.6'
p925
(dp926
g3
S'Dhoni'
p927
sg5
S'no run'
p928
sg7
S' NL McCullum'
p929
sg9
S'\ndefended by Dhoni to the leg side to bring the over to an end  </p>]'
p930
ssS'33.4'
p931
(dp932
g3
S'Ashwin'
p933
sg5
S'1 run'
p934
sg7
S' Bennett'
p935
sg9
S"\ntries for the pick up shot through the square leg to this shorter one from Bennett  but this one doesn't quite go the distance as it spoons towards square leg  </p>]"
p936
ssS'19.4'
p937
(dp938
g3
S'Dhoni'
p939
sg5
S'no run'
p940
sg7
S' Anderson'
p941
sg9
S'\ntries to play a flick to this slanting delivery  but ends up missing the ball  </p>]'
p942
ssS'33.6'
p943
(dp944
g3
S'Dhoni'
p945
sg5
S'no run'
p946
sg7
S' Bennett'
p947
sg9
S'\nfull and angling in as Dhoni pushes this to mid-off  </p>]'
p948
ssS'33.1'
p949
(dp950
g3
S'Ashwin'
p951
sg5
S'no run'
p952
sg7
S' Bennett'
p953
sg9
S'\nback of a length and rushing past Ashwin to the keeper  </p>]'
p954
ssS'33.2'
p955
(dp956
g3
S'Ashwin'
p957
sg5
S'no run'
p958
sg7
S' Bennett'
p959
sg9
S'\ndefended straight to the man at mid-on  </p>]'
p960
ssS'19.5'
p961
(dp962
g3
S'Dhoni'
p963
sg5
S'no run'
p964
sg7
S' Anderson'
p965
sg9
S'\nonce again content to let this one through to the keeper  </p>]'
p966
ssS'19.6'
p967
(dp968
g3
S'Dhoni'
p969
sg5
S'no run'
p970
sg7
S' Anderson'
p971
sg9
S'\nanother let through to the keeper to end the over  </p>]'
p972
ssS'29.4'
p973
(dp974
g3
S'Ashwin'
p975
sg5
g116
sg7
S' Southee'
p976
sg9
S'\ntests him with a short one as Ashwin gets on the back foot to hook this  with Anderson running full tilt to his right before going for the desperate dive  but the ball beats him to the boundary. Excellent effort that from Corey  </p>]'
p977
ssS'39.6'
p978
(dp979
g3
S'Jadeja'
p980
sg5
g20
sg7
S' Southee'
p981
sg9
S'\nSouthee misses his mark just slightly as Jadeja is afforded the room he needs to lift this over long-off for a six. India not giving up just yet  </p>]'
p982
ssS'39.4'
p983
(dp984
g3
S'Ashwin'
p985
sg5
S'1 run'
p986
sg7
S' Southee'
p987
sg9
S'\nanother full one as he looks to hone in on his yorkers  with this one clipped uppishly through square leg  </p>]'
p988
ssS'37.337.337.337.337.337.337.337.337.337.3'
p989
(dp990
g3
S'Jadeja'
p991
sg5
g139
sg7
S' Anderson'
p992
sg9
S'\ntries to tease him with another short one down the leg side  but is called a wide once more  with Anderson unimpressed as he grumbles back to his mark  </p>]'
p993
ssS'18.618.618.618.618.618.618.618.618.618.6'
p994
(dp995
g3
S'Raina'
p996
sg5
g139
sg7
S' Bennett'
p997
sg9
S'\ntries out a shorter one on Raina as the umpire calls a wide for height  </p>]'
p998
ssS'39.3'
p999
(dp1000
g3
S'Ashwin'
p1001
sg5
g116
sg7
S' Southee'
p1002
sg9
S'\nemploys the bouncer as Ashwin is able to get under it and help it over the keeper to the fine leg boundary  </p>]'
p1003
ssS'19.1'
p1004
(dp1005
g3
S'Dhoni'
p1006
sg5
S'no run'
p1007
sg7
S' Anderson'
p1008
sg9
S'\nlength outside off which is left well alone by Dhoni  </p>]'
p1009
ssS'8.1'
p1010
(dp1011
g3
S'Dhawan'
p1012
sg5
S'no run'
p1013
sg7
S' Southee'
p1014
sg9
S'\non the front foot as this is defended to the off side  </p>]'
p1015
ssS'21.4'
p1016
(dp1017
g3
S'Raina'
p1018
sg5
g116
sg7
S' Williamson'
p1019
sg9
S'\ntoo wide from Williamson as he is able to pick the gap at third man to run this down to the boundary  </p>]'
p1020
ssS'8.3'
p1021
(dp1022
g3
S'Dhawan'
p1023
sg5
S'no run'
p1024
sg7
S' Southee'
p1025
sg9
S'\nbrings this one close to Dhawan as he looks to cut this away  </p>]'
p1026
ssS'8.2'
p1027
(dp1028
g3
S'Dhawan'
p1029
sg5
S'no run'
p1030
sg7
S' Southee'
p1031
sg9
S'\nback of a length which is cut away to silly point  </p>]'
p1032
ssS'8.5'
p1033
(dp1034
g3
S'Dhawan'
p1035
sg5
g116
sg7
S' Southee'
p1036
sg9
S'\nand again four more as he shuffles down to take this low full toss outside off and drive it handsomely through the same region for another boundary  </p>]'
p1037
ssS'8.4'
p1038
(dp1039
g3
S'Dhawan'
p1040
sg5
g116
sg7
S' Southee'
p1041
sg9
S'\nand this time he is able to pierce the gap by unfurling a drive through extra-cover  </p>]'
p1042
ssS'21.3'
p1043
(dp1044
g3
S'Raina'
p1045
sg5
S'no run'
p1046
sg7
S' Williamson'
p1047
sg9
S'\ngets forward to defend this one towards point  </p>]'
p1048
ssS'8.6'
p1049
(dp1050
g3
S'Dhawan'
p1051
sg5
S'1 run'
p1052
sg7
S' Southee'
p1053
sg9
S'\nable to ease this shortish length ball down to third man for a single  </p>]'
p1054
ssS'17.617.617.617.617.617.617.617.617.617.6'
p1055
(dp1056
g3
S'Dhoni'
p1057
sg5
g139
sg7
S' Anderson'
p1058
sg9
g112
ssS'19.3'
p1059
(dp1060
g3
S'Dhoni'
p1061
sg5
S'no run'
p1062
sg7
S' Anderson'
p1063
sg9
S'\nand sensibly follows that up with a checked drive back towards the bowler  </p>]'
p1064
ssS'44.4'
p1065
(dp1066
g3
S'Ashwin'
p1067
sg5
S'no run'
p1068
sg7
S' NL McCullum'
p1069
sg9
S'\nprods forward to defend this one from Nathan  </p>]'
p1070
ssS'42.5'
p1071
(dp1072
g3
S'Jadeja'
p1073
sg5
S'1 run'
p1074
sg7
S' NL McCullum'
p1075
sg9
S'\npunched off the back to midwicket for a single  </p>]'
p1076
ssS'30.3'
p1077
(dp1078
g3
S'Dhoni'
p1079
sg5
S'1 run'
p1080
sg7
S' NL McCullum'
p1081
sg9
S'\ndrives this one to the off side as he sets off  with Ashwin hesitating on the run before continuing to his end  </p>]'
p1082
ssS'44.5'
p1083
(dp1084
g3
S'Ashwin'
p1085
sg5
g38
sg7
S' NL McCullum'
p1086
sg9
S'\nGuptill. Not sure how to begin here. But. Simply. Amazing. Ashwin belts yet another one over midwicket  and for all accounts this looks as good as gone  but then all of a sudden Guptill displays some brilliance just before the rope as he catches this  with the momentum taking him over the rope  then pops it over to the field of play  before plucking the catch on the good side of the rope to claim it. Ends a fantastic rearguard effort from Ashwin  who has taken the scruff of this match and brought India back into it  </p>]'
p1087
ssS'9.4'
p1088
(dp1089
g3
S'Sharma'
p1090
sg5
S'no run'
p1091
sg7
S' Anderson'
p1092
sg9
S'\ndefends this one on the front foot  </p>]'
p1093
ssS'9.5'
p1094
(dp1095
g3
S'Sharma'
p1096
sg5
S'no run'
p1097
sg7
S' Anderson'
p1098
sg9
S'\ndefends this one off the back foot to the off side  </p>]'
p1099
ssS'9.6'
p1100
(dp1101
g3
S'Sharma'
p1102
sg5
S'2 runs'
p1103
sg7
S' Anderson'
p1104
sg9
S'\nable to run this down through the gap at third man for a couple  </p>]'
p1105
ssS'9.1'
p1106
(dp1107
g3
S'Dhawan'
p1108
sg5
S'no run'
p1109
sg7
S' Anderson'
p1110
sg9
S'\ndefends this first one from Anderson quite comfortably  </p>]'
p1111
ssS'9.2'
p1112
(dp1113
g3
S'Dhawan'
p1114
sg5
g38
sg7
S' Anderson'
p1115
sg9
S"\nadvances down the track as Dhawan decides to go after him  but gets the direction all wrong as he pulls this straight into deep midwicket's throat  with Guptill full stretch as he dove forward to take this catch. You just can't keep him out of the action for long. I suspect Dhoni will not be too pleased with the manner of the dismissal  especially when he had spoke at length after the second ODI about the importance of the top-order to stick around deep into the innings  </p>]"
p1116
ssS'9.3'
p1117
(dp1118
g3
S'Sharma'
p1119
sg5
S'no run'
p1120
sg7
S' Anderson'
p1121
sg9
S'\nRohit looks to guide this one past short third man  but hits it straight to him instead  </p>]'
p1122
ssS'34.4'
p1123
(dp1124
g3
S'Ashwin'
p1125
sg5
S'1 run'
p1126
sg7
S' NL McCullum'
p1127
sg9
S'\nplays this one towards point for one  </p>]'
p1128
ssS'41.6'
p1129
(dp1130
g3
S'Jadeja'
p1131
sg5
S'1 run'
p1132
sg7
S' Southee'
p1133
sg9
S'\nslower ball on the pads as Jadeja helps this down towards mid-on for a single  </p>]'
p1134
ssS'41.5'
p1135
(dp1136
g3
S'Ashwin'
p1137
sg5
S'1 run'
p1138
sg7
S' Southee'
p1139
sg9
S'\nthis time goes straighter as Ashwin clips this low full toss to deep midwicket  </p>]'
p1140
ssS'41.4'
p1141
(dp1142
g3
S'Ashwin'
p1143
sg5
g116
sg7
S' Southee'
p1144
sg9
S'\ndelivers this one outside off as Ashwin sees this early to delay his shot as he just opens the face to run this past the keeper to the boundary  </p>]'
p1145
ssS'41.3'
p1146
(dp1147
g3
S'Jadeja'
p1148
sg5
S'1 run'
p1149
sg7
S' Southee'
p1150
sg9
S'\npulled away through square leg by Jadeja to get a single  </p>]'
p1151
ssS'41.2'
p1152
(dp1153
g3
S'Jadeja'
p1154
sg5
S'2 runs'
p1155
sg7
S' Southee'
p1156
sg9
S'\nright in the blockhole from Southee as Jadeja is able to push this down towards mid-off for one  but a wayward throw back ends up giving them a second as well  much to the delight of the Indian contingent in Auckland  </p>]'
p1157
ssS'30.1'
p1158
(dp1159
g3
S'Dhoni'
p1160
sg5
S'no run'
p1161
sg7
S' NL McCullum'
p1162
sg9
S'\nlooks to belt this one away through the off side  but the timing is off  </p>]'
p1163
ssS'30.6'
p1164
(dp1165
g3
S'Dhoni'
p1166
sg5
S'1 run'
p1167
sg7
S' NL McCullum'
p1168
sg9
S'\nplays this one to the leg side for a quick single  which the pair are able to make  </p>]'
p1169
ssS'27.327.327.327.327.327.327.327.327.327.3'
p1170
(dp1171
g3
S'Dhoni'
p1172
sg5
g139
sg7
S' Southee'
p1173
sg9
S"\nlength outside off  which is a tad wide  as Bowden is on Southee's case  </p>]"
p1174
ssS'44.2'
p1175
(dp1176
g3
S'Ashwin'
p1177
sg5
S'1 run'
p1178
sg7
S' NL McCullum'
p1179
sg9
S'\nnow sensibly taps this one away to the off side for one  </p>]'
p1180
ssS'43.5'
p1181
(dp1182
g3
S'Ashwin'
p1183
sg5
S'no run'
p1184
sg7
S' Bennett'
p1185
sg9
S'\nanother short one which Ashwin tries in vain to ramp  but is not able to  </p>]'
p1186
ssS'28.1'
p1187
(dp1188
g3
S'Ashwin'
p1189
sg5
S'no run'
p1190
sg7
S' NL McCullum'
p1191
sg9
S'\ndefended by Ashwin on the back foot  </p>]'
p1192
ssS'28.2'
p1193
(dp1194
g3
S'Ashwin'
p1195
sg5
S'1 run'
p1196
sg7
S' NL McCullum'
p1197
sg9
S'\nAshwin able to nurdle a single to get Dhoni on strike  </p>]'
p1198
ssS'28.3'
p1199
(dp1200
g3
S'Dhoni'
p1201
sg5
S'1 run'
p1202
sg7
S' NL McCullum'
p1203
sg9
S'\nDhoni slaps this one away through long-off for a single  </p>]'
p1204
ssS'28.4'
p1205
(dp1206
g3
S'Ashwin'
p1207
sg5
S'1 run'
p1208
sg7
S' NL McCullum'
p1209
sg9
S'\nAshwin paddles this away to deep fine leg for one  </p>]'
p1210
ssS'28.5'
p1211
(dp1212
g3
S'Dhoni'
p1213
sg5
S'no run'
p1214
sg7
S' NL McCullum'
p1215
sg9
S'\ndriven back past the bowler on his left  </p>]'
p1216
ssS'7.3'
p1217
(dp1218
g3
S'Sharma'
p1219
sg5
S'no run'
p1220
sg7
S' Bennett'
p1221
sg9
S'\nlooks to turn this one to the leg side  </p>]'
p1222
ssS'15.5'
p1223
(dp1224
g3
S'Raina'
p1225
sg5
S'1 run'
p1226
sg7
S' Anderson'
p1227
sg9
S'\nthis time is able to maneuver this length ball outside off to the leg side for a single  </p>]'
p1228
ssS'19.2'
p1229
(dp1230
g3
S'Dhoni'
p1231
sg5
g20
sg7
S' Anderson'
p1232
sg9
S"\nit doesn't take Dhoni long to tee off as he advances down the track a bit before whacking this over long-on for a huge six  </p>]"
p1233
ssS'38.2'
p1234
(dp1235
g3
S'Ashwin'
p1236
sg5
S'3 runs'
p1237
sg7
S' McClenaghan'
p1238
sg9
S"\nunfurls a lovely cover drive through the off side as Ashwin gets the dive in to help make it three runs as this one doesn't quite reach the extra-cover boundary  </p>]"
p1239
ssS'39.5'
p1240
(dp1241
g3
S'Jadeja'
p1242
sg5
S'no run'
p1243
sg7
S' Southee'
p1244
sg9
S'\nsuccessfully dug out by Jadeja as Southee finally finds the perfect yorker  </p>]'
p1245
ssS'31.6'
p1246
(dp1247
g3
S'Dhoni'
p1248
sg5
S'1 run'
p1249
sg7
S' Bennett'
p1250
sg9
S'\nfull on the pads as he flicks this one down to deep square leg to retain the strike  </p>]'
p1251
ssS'38.4'
p1252
(dp1253
g3
S'Jadeja'
p1254
sg5
g116
sg7
S' McClenaghan'
p1255
sg9
S'\nshort from McClenaghan as Jadeja pounces on this quickly to dispatch it with a pull through long-on and deep midwicket for a boundary  </p>]'
p1256
ssS'31.4'
p1257
(dp1258
g3
S'Dhoni'
p1259
sg5
S'no run'
p1260
sg7
S' Bennett'
p1261
sg9
S'\ndriven solidly by Dhoni towards mid-off  </p>]'
p1262
ssS'31.5'
p1263
(dp1264
g3
S'Dhoni'
p1265
sg5
S'no run'
p1266
sg7
S' Bennett'
p1267
sg9
S"\ndriven forcibly by Dhoni towards the off side  but he still can't get that single he requires  </p>]"
p1268
ssS'31.2'
p1269
(dp1270
g3
S'Dhoni'
p1271
sg5
S'1 run'
p1272
sg7
S' Bennett'
p1273
sg9
S'\nplays that trademark flick off the back foot behind to fine leg  </p>]'
p1274
ssS'31.3'
p1275
(dp1276
g3
S'Ashwin'
p1277
sg5
S'1 run'
p1278
sg7
S' Bennett'
p1279
sg9
S'\nturned away by Ashwin down to mid-on for a quick single  </p>]'
p1280
ssS'31.1'
p1281
(dp1282
g3
S'Dhoni'
p1283
sg5
S'no run'
p1284
sg7
S' Bennett'
p1285
sg9
S'\nslanting in on middle as Dhoni clips this to the leg side  </p>]'
p1286
ssS'18.1'
p1287
(dp1288
g3
S'Raina'
p1289
sg5
S'no run'
p1290
sg7
S' Bennett'
p1291
sg9
S'\nnegotiated by Raina successfully  </p>]'
p1292
ssS'18.3'
p1293
(dp1294
g3
S'Dhoni'
p1295
sg5
S'no run'
p1296
sg7
S' Bennett'
p1297
sg9
S'\nshort of a length and allowed through to the keeper  </p>]'
p1298
ssS'18.2'
p1299
(dp1300
g3
S'Raina'
p1301
sg5
S'1 run'
p1302
sg7
S' Bennett'
p1303
sg9
S'\nRaina quickly into position to this short one as this is pulled to square leg  </p>]'
p1304
ssS'18.5'
p1305
(dp1306
g3
S'Raina'
p1307
sg5
g116
sg7
S' Bennett'
p1308
sg9
S'\nsheer timing from Raina as he leans into this square drive square for four  </p>]'
p1309
ssS'18.4'
p1310
(dp1311
g3
S'Dhoni'
p1312
sg5
S'1 run'
p1313
sg7
S' Bennett'
p1314
sg9
S'\nthis time on the pads as this is tucked behind to fine leg  </p>]'
p1315
ssS'18.6'
p1316
(dp1317
g3
S'Raina'
p1318
sg5
S'no run'
p1319
sg7
S' Bennett'
p1320
sg9
S'\nand delivers a more accurate bouncer to Raina which has him avoiding this at all costs. Takes some moxy to follow up a wided bouncer with yet another bouncer  </p>]'
p1321
ssS'1.4'
p1322
(dp1323
g3
S'Sharma'
p1324
sg5
S'no run'
p1325
sg7
S' McClenaghan'
p1326
sg9
S'\non a length  middle and leg  defended to leg  </p>]'
p1327
ssS'1.5'
p1328
(dp1329
g3
S'Sharma'
p1330
sg5
S'no run'
p1331
sg7
S' McClenaghan'
p1332
sg9
S"\nshort of a length  wide  left alone. Rohit expects to see outstretched arms at the other end  but he doesn't get the wide call  </p>]"
p1333
ssS'1.6'
p1334
(dp1335
g3
S'Sharma'
p1336
sg5
S'2 runs'
p1337
sg7
S' McClenaghan'
p1338
sg9
S'\nloose drive  in the air  not controlled  but it goes into the gap between cover and mid-off  </p>]'
p1339
ssS'1.1'
p1340
(dp1341
g3
S'Sharma'
p1342
sg5
S'no run'
p1343
sg7
S' McClenaghan'
p1344
sg9
S'\ngets swing first ball  Rohit defends off the front foot  </p>]'
p1345
ssS'1.2'
p1346
(dp1347
g3
S'Sharma'
p1348
sg5
g20
sg7
S' McClenaghan'
p1349
sg9
S'\nbeautiful drive. Leans into a length ball  gets under it  and drives it over mid-off for a flat six. Rohit has come out with a different mindset here  </p>]'
p1350
ssS'1.3'
p1351
(dp1352
g3
S'Sharma'
p1353
sg5
S'no run'
p1354
sg7
S' McClenaghan'
p1355
sg9
S'\ngood comeback from Mitch. This one angles away just outside off  and beats the outside edge as Rohit pokes at it  </p>]'
p1356
ssS'0.1'
p1357
(dp1358
g3
S'Sharma'
p1359
sg5
S'no run'
p1360
sg7
S' Southee'
p1361
sg9
S'\nshort of a length  middle and leg  hits Rohit Sharma on the thigh pad  </p>]'
p1362
ssS'30.2'
p1363
(dp1364
g3
S'Dhoni'
p1365
sg5
S'no run'
p1366
sg7
S' NL McCullum'
p1367
sg9
S'\ndrills this one back to the bowler as they look for the gaps  </p>]'
p1368
ssS'0.3'
p1369
(dp1370
g3
S'Sharma'
p1371
sg5
S'1 run'
p1372
sg7
S' Southee'
p1373
sg9
S'\n<b>dropped</b>. A tough chance. Rohit takes a chance  slashes at a full wide one  Ryder flies at second slip  but manages only a hand to the overhead catch. He almost times this jump to perfection  but the ball hits the right hand as opposed to the middle of the both  </p>]'
p1374
ssS'0.2'
p1375
(dp1376
g3
S'Sharma'
p1377
sg5
S'no run'
p1378
sg7
S' Southee'
p1379
sg9
S'\non a length  into the pads  defended to square leg  </p>]'
p1380
ssS'0.5'
p1381
(dp1382
g3
S'Dhawan'
p1383
sg5
S'1 run'
p1384
sg7
S' Southee'
p1385
sg9
S'\nworked to leg for a single  </p>]'
p1386
ssS'0.4'
p1387
(dp1388
g3
S'Dhawan'
p1389
sg5
S'no run'
p1390
sg7
S' Southee'
p1391
sg9
S"\non middle and leg  that's the line to bowl to Dhawan. He defends  </p>]"
p1392
ssS'30.5'
p1393
(dp1394
g3
S'Ashwin'
p1395
sg5
S'1 run'
p1396
sg7
S' NL McCullum'
p1397
sg9
S'\npushed to the right of Nathan down to long-on  </p>]'
p1398
ssS'0.6'
p1399
(dp1400
g3
S'Sharma'
p1401
sg5
S'1 run'
p1402
sg7
S' Southee'
p1403
sg9
S"\nwide of the crease  angles this in  doesn't get any swing  and is worked away to long leg for one  </p>]"
p1404
ssS'38.3'
p1405
(dp1406
g3
S'Jadeja'
p1407
sg5
S'no run'
p1408
sg7
S' McClenaghan'
p1409
sg9
S'\ngood short ball from McClenaghan as Jadeja ends up withdrawing the shot. He could certainly have chosen to ramp this over the slips  </p>]'
p1410
ssS'36.5'
p1411
(dp1412
g3
S'Ashwin'
p1413
sg5
S'no run'
p1414
sg7
S' McClenaghan'
p1415
sg9
S'\nlooking for the attempted yorker as Ashwin fails to do more with this low full toss  with this one hit towards the leg side in the end  </p>]'
p1416
ssS'38.1'
p1417
(dp1418
g3
S'Ashwin'
p1419
sg5
g116
sg7
S' McClenaghan'
p1420
sg9
S'\nthis time edged past slip for four as McClenaghan is not at all happy with the end result  </p>]'
p1421
ssS'38.6'
p1422
(dp1423
g3
S'Jadeja'
p1424
sg5
S'no run'
p1425
sg7
S' McClenaghan'
p1426
sg9
S'\nslower ball outside off as he looks to slap this away  and after getting bat on it  sets off for a run  but is quickly turned back by Ashwin  </p>]'
p1427
ssS'38.5'
p1428
(dp1429
g3
S'Jadeja'
p1430
sg5
S'no run'
p1431
sg7
S' McClenaghan'
p1432
sg9
S'\nthis time wide outside off as Jadeja misses on an opportunity to find the boundary as he ends up hitting this straight to backward point  </p>]'
p1433
ssS'36.4'
p1434
(dp1435
g3
S'Jadeja'
p1436
sg5
S'1 run'
p1437
sg7
S' McClenaghan'
p1438
sg9
S'\nable to get under this and club it towards deep midwicket for one  </p>]'
p1439
ssS'13.6'
p1440
(dp1441
g3
S'Rahane'
p1442
sg5
S'no run'
p1443
sg7
S' Anderson'
p1444
sg9
S'\nback of a length pushed across Rahane  which is left alone by the batsman  </p>]'
p1445
ssS'13.4'
p1446
(dp1447
g3
S'Rahane'
p1448
sg5
S'no run'
p1449
sg7
S' Anderson'
p1450
sg9
S'\nshort ball on middle and off which Rahane chooses to duck under  </p>]'
p1451
ssS'13.5'
p1452
(dp1453
g3
S'Rahane'
p1454
sg5
S'no run'
p1455
sg7
S' Anderson'
p1456
sg9
S'\ndefended on the front foot by Rahane to the off side  </p>]'
p1457
ssS'13.2'
p1458
(dp1459
g3
S'Rahane'
p1460
sg5
S'no run'
p1461
sg7
S' Anderson'
p1462
sg9
S'\ngets solidly behind this back of a length ball from Anderson  </p>]'
p1463
ssS'13.3'
p1464
(dp1465
g3
S'Rahane'
p1466
sg5
S'no run'
p1467
sg7
S' Anderson'
p1468
sg9
S'\non the front foot as this is played down to mid-off  </p>]'
p1469
ssS'13.1'
p1470
(dp1471
g3
S'Sharma'
p1472
sg5
g38
sg7
S' Anderson'
p1473
sg9
S"\nyou just can't keep that man away from proceedings as Anderson strikes again  getting Rohit to go for a lofted shot through extra-cover  but instead miscues it down to third man  with Bennett taking a safe catch. Ends yet another promising innings from Rohit  who had done all the hard work  but has given it away  </p>]"
p1474
ssS'4.5'
p1475
(dp1476
g3
S'Dhawan'
p1477
sg5
S'no run'
p1478
sg7
S' Southee'
p1479
sg9
S'\nDhawan makes sure to keep this next one out from Southee  </p>]'
p1480
ssS'4.4'
p1481
(dp1482
g3
S'Sharma'
p1483
sg5
S'1 run'
p1484
sg7
S' Southee'
p1485
sg9
S'\nand Rohit gets away with one as he looks for the lofted pull through midwicket to this short one from Southee  but because he had planted his front foot  he was never really in balance for that shot  with the result being a top-edge which lands in no-mans land near where silly mid-off would have been  </p>]'
p1486
ssS'5.2'
p1487
(dp1488
g3
S'Sharma'
p1489
sg5
g20
sg7
S' McClenaghan'
p1490
sg9
S'\ndances down the track before lofting McClenaghan high over long-off for a six. Excellent execution of the stroke  especially in regards to the economy of movement  </p>]'
p1491
ssS'4.6'
p1492
(dp1493
g3
S'Dhawan'
p1494
sg5
S'no run'
p1495
sg7
S' Southee'
p1496
sg9
S'\nends the over with a beauty that rushes past the outside edge on a length  </p>]'
p1497
ssS'4.1'
p1498
(dp1499
g3
S'Dhawan'
p1500
sg5
S'no run'
p1501
sg7
S' Southee'
p1502
sg9
S'\nDhawan watchful as he plays this one back to the bowler  </p>]'
p1503
ssS'5.5'
p1504
(dp1505
g3
S'Sharma'
p1506
sg5
S'1 run'
p1507
sg7
S' McClenaghan'
p1508
sg9
S'\ntries the slower bouncer  slanting to the off side  as Rohit maneuvers this to the leg side with an improvised pull shot  </p>]'
p1509
ssS'4.3'
p1510
(dp1511
g3
S'Dhawan'
p1512
sg5
S'1 run'
p1513
sg7
S' Southee'
p1514
sg9
S'\nthis time plays through the off side with a scrumptious cover drive  but is blocked off by the efforts of mid-off  </p>]'
p1515
ssS'4.2'
p1516
(dp1517
g3
S'Dhawan'
p1518
sg5
g116
sg7
S' Southee'
p1519
sg9
S'\nDhawan punishes Southee for straying on the pads with a lovely pick-up shot through the leg side for a boundary  </p>]'
p1520
ssS'11.4'
p1521
(dp1522
g3
S'Kohli'
p1523
sg5
S'no run'
p1524
sg7
S' Anderson'
p1525
sg9
S'\ntries to guide this one past short third man  but finds the fielder  </p>]'
p1526
ssS'11.5'
p1527
(dp1528
g3
S'Kohli'
p1529
sg5
g116
sg7
S' Anderson'
p1530
sg9
S'\ndriven beautifully by Kohli on the front foot through midwicket to get himself going in Auckland  </p>]'
p1531
ssS'11.6'
p1532
(dp1533
g3
S'Kohli'
p1534
sg5
S'1 run'
p1535
sg7
S' Anderson'
p1536
sg9
S'\nfull on the pads as Kohli clips this to midwicket to end the over  </p>]'
p1537
ssS'11.1'
p1538
(dp1539
g3
S'Sharma'
p1540
sg5
S'no run'
p1541
sg7
S' Anderson'
p1542
sg9
S'\ndefended on the front foot by Rohit  </p>]'
p1543
ssS'11.2'
p1544
(dp1545
g3
S'Sharma'
p1546
sg5
S'1 run'
p1547
sg7
S' Anderson'
p1548
sg9
S'\non the back foot as this is cut away behind square to third man  </p>]'
p1549
ssS'11.3'
p1550
(dp1551
g3
S'Kohli'
p1552
sg5
S'no run'
p1553
sg7
S' Anderson'
p1554
sg9
S'\npresses forward as this is played towards mid-off  </p>]'
p1555
ssS'17.2'
p1556
(dp1557
g3
S'Rahane'
p1558
sg5
S'no run'
p1559
sg7
S' Anderson'
p1560
sg9
S"\npunches this one off the back foot  but can't beat short cover  </p>]"
p1561
ssS'17.3'
p1562
(dp1563
g3
S'Rahane'
p1564
sg5
S'no run'
p1565
sg7
S' Anderson'
p1566
sg9
S'\ndefended by Rahane  </p>]'
p1567
ssS'17.1'
p1568
(dp1569
g3
S'Rahane'
p1570
sg5
S'no run'
p1571
sg7
S' Anderson'
p1572
sg9
S'\ndefended authoritatively by Rahane  </p>]'
p1573
ssS'17.6'
p1574
(dp1575
g3
S'Dhoni'
p1576
sg5
g116
sg7
S' Anderson'
p1577
sg9
S'\nstraying on the pads as Anderson is punished with a little glance to the fine leg boundary  </p>]'
p1578
ssS'36.3'
p1579
(dp1580
g3
S'Ashwin'
p1581
sg5
S'1 run'
p1582
sg7
S' McClenaghan'
p1583
sg9
S'\nangles this one down to mid-on for a quick single  </p>]'
p1584
ssS'17.4'
p1585
(dp1586
g3
S'Rahane'
p1587
sg5
g38
sg7
S' Anderson'
p1588
sg9
S"\nand this time it is Rahane's time to depart as he tickles this leg side delivery from Anderson straight to the waiting paws of Ronchi behind  who doesn't make a mess of it  </p>]"
p1589
ssS'17.5'
p1590
(dp1591
g3
S'Dhoni'
p1592
sg5
S'no run'
p1593
sg7
S' Anderson'
p1594
sg9
S'\nfires this one wide outside off  but a bit too wide as the umpire signals wide  </p>]'
p1595
ssS'47.1'
p1596
(dp1597
g3
S'Shami'
p1598
sg5
S'no run'
p1599
sg7
S' Anderson'
p1600
sg9
S'\nback of a length and wide as Shami fails to put this away  </p>]'
p1601
ssS'47.3'
p1602
(dp1603
g3
S'Shami'
p1604
sg5
S'1 run'
p1605
sg7
S' Anderson'
p1606
sg9
S'\nslower bouncer outside off which is played with soft hands as Kane is on it again  throwing an under-arm throw which again misses. That is his second chance in as many overs  </p>]'
p1607
ssS'36.2'
p1608
(dp1609
g3
S'Ashwin'
p1610
sg5
g116
sg7
S' McClenaghan'
p1611
sg9
S'\nplays a lovely back foot punch behind point  with the timing just right  as this races to the third man boundary  </p>]'
p1612
ssS'47.5'
p1613
(dp1614
g3
S'Shami'
p1615
sg5
g38
sg7
S' Anderson'
p1616
sg9
S'\nanother slower bouncer from Anderson has helped him to a <b>maiden five-wicket haul</b> as Shami  looking for quick runs  ends up hitting this straight up in the air  with point getting under it to take a straightforward catch. NZ on top now as Varun Aaron joins the party  </p>]'
p1617
ssS'47.2'
p1618
(dp1619
g3
S'Shami'
p1620
sg5
S'no run'
p1621
sg7
S' Anderson'
p1622
sg9
S'\ngoes for the big heave but ends up missing this length ball outside off  </p>]'
p1623
ssS'47.6'
p1624
(dp1625
g3
S'Jadeja'
p1626
sg5
S'no run'
p1627
sg7
S' Anderson'
p1628
sg9
S'\ntries out another shorter one outside off as Jadeja tries in vain to ramp this over the slips  </p>]'
p1629
ssS'46.4'
p1630
(dp1631
g3
S'Jadeja'
p1632
sg5
g20
sg7
S' McClenaghan'
p1633
sg9
S'\nright up in the blockhole as Jadeja is able to find enough leverage to clear long-on with the cleanest of strikes. Just what India required at this point as he knew it straightaway upon the ball leaving his bat  </p>]'
p1634
ssS'46.5'
p1635
(dp1636
g3
S'Jadeja'
p1637
sg5
S'no run'
p1638
sg7
S' McClenaghan'
p1639
sg9
S'\nand Jadeja almost gets himself out next ball as McClenaghan favours the slower bouncer this time  with Jadeja having to work this fine towards the keeper as he was cramped for space  but lucky in that the ball died before it reached Ronchi  </p>]'
p1640
ssS'46.6'
p1641
(dp1642
g3
S'Jadeja'
p1643
sg5
S'no run'
p1644
sg7
S' McClenaghan'
p1645
sg9
S'\nMcClenaghan pleads his case while Ronchi looks increasingly bemused. They are still fighting. Fires in a short one which Jadeja seems to have hit as it went through to the keeper  but the umpire has decided not to give it out. Replays  however  show that it was indeed white as both HotSpot and Snicko are showing some positive readings in favour of the bowling side  </p>]'
p1646
ssS'38.238.238.238.238.238.238.238.238.238.2'
p1647
(dp1648
g3
S'Ashwin'
p1649
sg5
g139
sg7
S' McClenaghan'
p1650
sg9
S'\nand McClenaghan needs to get his radar sorted as he gets this one horribly wide  </p>]'
p1651
ssS'46.1'
p1652
(dp1653
g3
S'Jadeja'
p1654
sg5
S'1 run'
p1655
sg7
S' McClenaghan'
p1656
sg9
S'\ngets a low full toss screaming down the pads as Jadeja works this away for a single  </p>]'
p1657
ssS'46.2'
p1658
(dp1659
g3
S'Shami'
p1660
sg5
S'no run'
p1661
sg7
S' McClenaghan'
p1662
sg9
S'\nShami fails to tonk this fuller one as it continues on to the keeper  </p>]'
p1663
ssS'5.1'
p1664
(dp1665
g3
S'Sharma'
p1666
sg5
S'no run'
p1667
sg7
S' McClenaghan'
p1668
sg9
S'\ngets behind the line of this back of a length delivery  </p>]'
p1669
ssS'27.627.627.627.627.627.627.627.627.627.6'
p1670
(dp1671
g3
S'Dhoni'
p1672
sg5
g139
sg7
S' Southee'
p1673
sg9
S'\ngood bouncer from Southee as this one surprises Dhoni because of the height  </p>]'
p1674
ssS'5.3'
p1675
(dp1676
g3
S'Sharma'
p1677
sg5
S'no run'
p1678
sg7
S' McClenaghan'
p1679
sg9
S"\neases this one off the pads to the leg side  but can't pinch the single  </p>]"
p1680
ssS'48.548.548.548.548.548.548.548.548.548.5'
p1681
(dp1682
g3
S'Jadeja'
p1683
sg5
g139
sg7
S' McClenaghan'
p1684
sg9
S'\nslow bouncer from McClenaghan which has been called wide by the umpire  much to the frustration of the big unit  who has some choice words  </p>]'
p1685
ssS'41.1'
p1686
(dp1687
g3
S'Jadeja'
p1688
sg5
S'no run'
p1689
sg7
S' Southee'
p1690
sg9
S'\nshortish length ball which rises on Jadeja as he looks to ramp this over the slips. Ends up being called one for the over  </p>]'
p1691
ssS'29.5'
p1692
(dp1693
g3
S'Ashwin'
p1694
sg5
S'1 run'
p1695
sg7
S' Southee'
p1696
sg9
S'\nthis time is able to turn it away to the leg side for one  </p>]'
p1697
ssS'5.4'
p1698
(dp1699
g3
S'Sharma'
p1700
sg5
g20
sg7
S' McClenaghan'
p1701
sg9
S'\nRohit is simply putting on a clinic here with some neat striking of the ball. McClenaghan delivers a short one which has Rohit quickly into position to hammer this over square leg with a fine pull  </p>]'
p1702
ssS'29.6'
p1703
(dp1704
g3
S'Dhoni'
p1705
sg5
S'1 run'
p1706
sg7
S' Southee'
p1707
sg9
S'\nback of a length which is jabbed away by Dhoni to the off side  </p>]'
p1708
ssS'29.1'
p1709
(dp1710
g3
S'Dhoni'
p1711
sg5
S'no run'
p1712
sg7
S' Southee'
p1713
sg9
S"\nlooks to slap this one away outside off  but can't get it past point  </p>]"
p1714
ssS'29.3'
p1715
(dp1716
g3
S'Ashwin'
p1717
sg5
S'no run'
p1718
sg7
S' Southee'
p1719
sg9
S'\ntries to run this one down to third man  but the length was not quite right to do so  </p>]'
p1720
ssS'29.2'
p1721
(dp1722
g3
S'Dhoni'
p1723
sg5
S'1 run'
p1724
sg7
S' Southee'
p1725
sg9
S'\nable to clip this one on the front foot through the leg side for a single  </p>]'
p1726
ssS'15.1'
p1727
(dp1728
g3
S'Raina'
p1729
sg5
S'no run'
p1730
sg7
S' Anderson'
p1731
sg9
S'\nlength ball shaping away into Raina as he blocks it out  </p>]'
p1732
ssS'15.2'
p1733
(dp1734
g3
S'Raina'
p1735
sg5
S'no run'
p1736
sg7
S' Anderson'
p1737
sg9
S'\non the front foot to work this one away to mid-off  </p>]'
p1738
ssS'15.3'
p1739
(dp1740
g3
S'Raina'
p1741
sg5
S'no run'
p1742
sg7
S' Anderson'
p1743
sg9
S"\nRaina tries out his pull to this shorter one  but it didn't seem to quite come on to the bat  </p>]"
p1744
ssS'15.4'
p1745
(dp1746
g3
S'Raina'
p1747
sg5
S'no run'
p1748
sg7
S' Anderson'
p1749
sg9
S'\nand tests him with another short one which has Raina ducking for cover  </p>]'
p1750
ssS'5.6'
p1751
(dp1752
g3
S'Dhawan'
p1753
sg5
S'no run'
p1754
sg7
S' McClenaghan'
p1755
sg9
S'\non the front foot as he looks to get this away on the leg side  </p>]'
p1756
ssS'15.6'
p1757
(dp1758
g3
S'Rahane'
p1759
sg5
S'1 run'
p1760
sg7
S' Anderson'
p1761
sg9
S'\nlength on the pads which is tickled down to fine leg  </p>]'
p1762
ssS'49.249.249.249.249.249.249.249.249.249.2'
p1763
(dp1764
g3
S'Jadeja'
p1765
sg5
g139
sg7
S' Anderson'
p1766
sg9
S'\nJadeja thought about shuffling to the leg side  but decides to hold his ground as he sees this short ball slanting down the leg side. Umpire calls a wide  and NZ have a hissy fit  </p>]'
p1767
ssS'44.3'
p1768
(dp1769
g3
S'Jadeja'
p1770
sg5
S'1 run'
p1771
sg7
S' NL McCullum'
p1772
sg9
S'\neased off the back foot towards backward square for a single  </p>]'
p1773
ssS'49.4'
p1774
(dp1775
g3
S'Jadeja'
p1776
sg5
g116
sg7
S' Anderson'
p1777
sg9
S'\nback of a length as Jadeja improvises a flick that he is able to maneuver to the vacant fine leg region for four  </p>]'
p1778
ssS'48.2'
p1779
(dp1780
g3
S'Jadeja'
p1781
sg5
g20
sg7
S' McClenaghan'
p1782
sg9
S'\nJadeja you beauty! Is able to get under this fuller one from McClenaghan as he clears his front leg before tonking him over midwicket for a huge six  </p>]'
p1783
ssS'48.3'
p1784
(dp1785
g3
S'Jadeja'
p1786
sg5
S'1 run'
p1787
sg7
S' McClenaghan'
p1788
sg9
S'\n<b>dropped</b> Jadeja given a shorter one to go after  and he does  hitting this well over to third man  and Bennett  who is stationed there  comes in to try and take it  but ends up bobbling it as he dives  </p>]'
p1789
ssS'48.1'
p1790
(dp1791
g3
S'Aaron'
p1792
sg5
S'1 run'
p1793
sg7
S' McClenaghan'
p1794
sg9
S'\nAaron does the first job of getting himself to the other end with a glance to the leg side with soft hands  </p>]'
p1795
ssS'48.6'
p1796
(dp1797
g3
S'Aaron'
p1798
sg5
S'no run'
p1799
sg7
S' McClenaghan'
p1800
sg9
S"\nback of a length outside off as Aaron has a flash at it  but doesn't quite get bat on ball  </p>]"
p1801
ssS'48.4'
p1802
(dp1803
g3
S'Aaron'
p1804
sg5
S'1 run'
p1805
sg7
S' McClenaghan'
p1806
sg9
S'\nAaron able to find a single with a dab to the leg side  with Jadeja running like Bolt to the other end  </p>]'
p1807
ssS'48.5'
p1808
(dp1809
g3
S'Jadeja'
p1810
sg5
S'1 run'
p1811
sg7
S' McClenaghan'
p1812
sg9
S'\nanother short one as Jadeja goes after it  not totally in control  but still able to land this pull safely in the square leg region  </p>]'
p1813
ssS'47.4'
p1814
(dp1815
g3
S'Jadeja'
p1816
sg5
S'1 run'
p1817
sg7
S' Anderson'
p1818
sg9
S'\nslaps this short of a length ball away towards long-off  </p>]'
p1819
ssS'49.449.449.449.449.449.449.449.449.449.4'
p1820
(dp1821
g3
S'Jadeja'
p1822
sg5
g139
sg7
S' Anderson'
p1823
sg9
S'\nan attempted yorker speared down the leg side as he gets well out of its way  with the umpire calling yet another wide  </p>]'
p1824
ss.