(dp0
S'33.5'
p1
(dp2
S'to'
p3
S'Taylor'
p4
sS'what'
p5
S'1 run'
p6
sS'from'
p7
S' Ashwin'
p8
sS'why'
p9
S'\nTaylor swipes across the line but misses and is hit on the body  leg byes towards short third man  but the umpire has judged he got some bat on that  </p>]'
p10
ssS'35.2'
p11
(dp12
g3
S'Anderson'
p13
sg5
S'6 run'
p14
sg7
S' Mohammed Shami'
p15
sg9
S"\nwhoops  this time he's missed the blockhole length and bowled a half-volley  Anderson plants his foot forward  gets under the ball and carts it over the straight boundary with a lot of power  </p>]"
p16
ssS'35.3'
p17
(dp18
g3
S'Anderson'
p19
sg5
S'no run'
p20
sg7
S' Mohammed Shami'
p21
sg9
S'\nthe shorter and slower ball outside off  Anderson did not read it and eventually let it go  </p>]'
p22
ssS'35.1'
p23
(dp24
g3
S'Anderson'
p25
sg5
S'no run'
p26
sg7
S' Mohammed Shami'
p27
sg9
S'\nShami hits the blockhole from round the wicket  Anderson can only dig it out back to the bowler  terrific start to a new spell  </p>]'
p28
ssS'35.6'
p29
(dp30
g3
S'Anderson'
p31
sg5
S'4 run'
p32
sg7
S' Mohammed Shami'
p33
sg9
S"\nthat's a full toss with room outside off stump  Anderson lines it up and slashes so hard  blazing the ball to the backward point boundary  </p>]"
p34
ssS'35.4'
p35
(dp36
g3
S'Anderson'
p37
sg5
S'1 run'
p38
sg7
S' Mohammed Shami'
p39
sg9
S'\na full ball angles into the left-hander  cramping him for room  Anderson chips it towards long-on  where it falls well short of the fielder  </p>]'
p40
ssS'35.5'
p41
(dp42
g3
S'Taylor'
p43
sg5
S'1 run'
p44
sg7
S' Mohammed Shami'
p45
sg9
S'\nTaylor moves forward and across and drives a full ball towards Anderson  who sways out of the way to let it pass towards long on  </p>]'
p46
ssS'7.2'
p47
(dp48
g3
S'Williamson'
p49
sg5
S'no run'
p50
sg7
S' Mohammed Shami'
p51
sg9
S'\ngood length outside off  Williamson lets it go  </p>]'
p52
ssS'6.6'
p53
(dp54
g3
S'Guptill'
p55
sg5
g32
sg7
S' Kumar'
p56
sg9
S"\nthis one is in the air but over the head of the man at mid-off  Guptill came forward and lofted a fuller ball on the up  he may have wanted to hit it a little straighter though but he's picked up consecutive boundaries  </p>]"
p57
ssS'12.1'
p58
(dp59
g3
S'Williamson'
p60
sg5
S'no run'
p61
sg7
S' I Sharma'
p62
sg9
S'\ngood length on off  angling into middle at 135 kph  Williamson defends on the front foot  </p>]'
p63
ssS'7.1'
p64
(dp65
g3
S'Williamson'
p66
sg5
S'2 runs'
p67
sg7
S' Mohammed Shami'
p68
sg9
S'\nthat ball was so short that Williamson had plenty of time to adjust to the slowness of the pitch and play a hook towards deep square leg  </p>]'
p69
ssS'6.3'
p70
(dp71
g3
S'Williamson'
p72
sg5
S'2 runs'
p73
sg7
S' Kumar'
p74
sg9
S'\nWilliamson moves back and across and flicks a length ball neatly in front of square  the timing is good  </p>]'
p75
ssS'12.6'
p76
(dp77
g3
S'Guptill'
p78
sg5
g14
sg7
S' I Sharma'
p79
sg9
S"\nthat's the first six of the game  Guptill moved forward and across and launched the ball off his pads  he didn't look up as the ball soared over the wide long-on boundary  he was looking down at the pitch  </p>]"
p80
ssS'6.1'
p81
(dp82
g3
S'Williamson'
p83
sg5
S'no run'
p84
sg7
S' Kumar'
p85
sg9
S'\na short ball  Williamson ducks under it  had plenty of time to do so because the bouncer was loopy  </p>]'
p86
ssS'12.4'
p87
(dp88
g3
S'Williamson'
p89
sg5
S'1 run'
p90
sg7
S' I Sharma'
p91
sg9
S'\nWilliamson stays back and opens the face to steer a length delivery from outside off to third man  </p>]'
p92
ssS'37.1'
p93
(dp94
g3
S'Taylor'
p95
sg5
S'1 run'
p96
sg7
S' Ashwin'
p97
sg9
S'\nTaylor wanted to nudge the ball on the leg side but the carrom ball spun away from him and went towards cover off the leading edge  </p>]'
p98
ssS'37.2'
p99
(dp100
g3
S'Anderson'
p101
sg5
S'1 run'
p102
sg7
S' Ashwin'
p103
sg9
S'\nJadeja leaps in the air full length at cover to try and catch a fearsome smash from Anderson  he got hands to the ball after it had passed him  spectacular effort. Saved a boundary.  </p>]'
p104
ssS'37.3'
p105
(dp106
g3
S'Taylor'
p107
sg5
S'1 run'
p108
sg7
S' Ashwin'
p109
sg9
S'\ngets down on one knee and slugs the ball behind square  reaches the deep backward square leg fielder on the first bounce  </p>]'
p110
ssS'37.4'
p111
(dp112
g3
S'Anderson'
p113
sg5
g14
sg7
S' Ashwin'
p114
sg9
S"\nthat's a massive shot  tremendous bat speed. Ashwin bowled a quicker ball  but Anderson used the angle into him from round the wicket  got under it and swung extremely hard. cleared midwicket by miles.  </p>]"
p115
ssS'37.5'
p116
(dp117
g3
S'Anderson'
p118
sg5
g14
sg7
S' Ashwin'
p119
sg9
S'\nthis one is much slower but it makes not a jot of difference. Anderson gets down on one knee and slog sweeps the ball high and far into the stands at deep midwicket  </p>]'
p120
ssS'37.6'
p121
(dp122
g3
S'Anderson'
p123
sg5
S'1 run'
p124
sg7
S' Ashwin'
p125
sg9
S'\nhit off the back foot extremely hard along the ground to long off  </p>]'
p126
ssS'10.1'
p127
(dp128
g3
S'Guptill'
p129
sg5
S'no run'
p130
sg7
S' I Sharma'
p131
sg9
S'\ngood length around off and midle at 136 kph  Guptill moves forward and across and defends on the on-side  </p>]'
p132
ssS'10.3'
p133
(dp134
g3
S'Guptill'
p135
sg5
S'1 run'
p136
sg7
S' I Sharma'
p137
sg9
S"\nshort ball down leg side  Guptill swivels and pulls hard along the ground  he's placed it straight to the long-leg fielder though  </p>]"
p138
ssS'10.2'
p139
(dp140
g3
S'Guptill'
p141
sg5
S'no run'
p142
sg7
S' I Sharma'
p143
sg9
S'\nGuptill stays in his crease and punches a good length ball to cover  </p>]'
p144
ssS'10.5'
p145
(dp146
g3
S'Williamson'
p147
sg5
S'no run'
p148
sg7
S' I Sharma'
p149
sg9
S'\n132 kph  good length just outside off  Williamson punches towards cover  </p>]'
p150
ssS'10.4'
p151
(dp152
g3
S'Williamson'
p153
sg5
S'no run'
p154
sg7
S' I Sharma'
p155
sg9
S'\nthe short ball and Williamson saw it early and ducked  </p>]'
p156
ssS'10.6'
p157
(dp158
g3
S'Williamson'
p159
sg5
S'1 run'
p160
sg7
S' I Sharma'
p161
sg9
S'\nshort ball once again  Williamson moves across towards the off and pulls the ball own behind square  </p>]'
p162
ssS'33.3'
p163
(dp164
g3
S'Taylor'
p165
sg5
S'no run'
p166
sg7
S' Ashwin'
p167
sg9
S'\nbowled on a good length on middle stump from round the wicket  Taylor defends on the front foot  </p>]'
p168
ssS'16.6'
p169
(dp170
g3
S'Guptill'
p171
sg5
S'no run'
p172
sg7
S' Kohli'
p173
sg9
S'\ndriven to mid off for a single  </p>]'
p174
ssS'16.5'
p175
(dp176
g3
S'Williamson'
p177
sg5
S'1 run'
p178
sg7
S' Kohli'
p179
sg9
S'\npunched off the back foot through cover for a single  </p>]'
p180
ssS'16.4'
p181
(dp182
g3
S'Williamson'
p183
sg5
S'no run'
p184
sg7
S' Kohli'
p185
sg9
S'\nWilliamson comes forward and defends towards the off side  </p>]'
p186
ssS'16.3'
p187
(dp188
g3
S'Guptill'
p189
sg5
S'1 run'
p190
sg7
S' Kohli'
p191
sg9
S'\na fuller ball  driven to long off for a single  </p>]'
p192
ssS'16.2'
p193
(dp194
g3
S'Guptill'
p195
sg5
g32
sg7
S' Kohli'
p196
sg9
S"\nthat's a dirty long-hop from Kohli  Guptill wound up and pulled the ball flat  bounced just inside the midwicket boundary  </p>]"
p197
ssS'16.1'
p198
(dp199
g3
S'Guptill'
p200
sg5
S'no run'
p201
sg7
S' Kohli'
p202
sg9
S'\ndriven back to the bowler on the front foot  </p>]'
p203
ssS'38.138.138.138.138.138.138.138.138.138.1'
p204
(dp205
g3
S'Anderson'
p206
sg5
S'1 wide'
p207
sg7
S' I Sharma'
p208
sg9
S'\nhis first ball from round the wicket is a tremendously-wide wide outside off stump  </p>]'
p209
ssS'14.4'
p210
(dp211
g3
S'Williamson'
p212
sg5
S'no run'
p213
sg7
S' Kohli'
p214
sg9
S"\nmis-times it towards cover  Kohli's bowling a decent length outside off  </p>]"
p215
ssS'26.6'
p216
(dp217
g3
S'Taylor'
p218
sg5
S'no run'
p219
sg7
S' Jadeja'
p220
sg9
S"\nHas Taylor been stumped? Dhoni's super confident Taylor's out. It's mighty close. Was Taylor's toe off the ground when Dhoni took the bails off? There's very little in it. Taylor had lunged forward but was beaten in the flight. The ball spun away from him and beat the bat. Taylor lost balance and Dhoni had the bails off in a flash. It's a tough call for the TV umpire and he gives the benefit of the doubt to Taylor.  </p>]"
p221
ssS'26.4'
p222
(dp223
g3
S'Taylor'
p224
sg5
S'no run'
p225
sg7
S' Jadeja'
p226
sg9
S'\ntight wicket to wicket line Taylor stays in his crease and blocks  </p>]'
p227
ssS'26.5'
p228
(dp229
g3
S'Taylor'
p230
sg5
S'no run'
p231
sg7
S' Jadeja'
p232
sg9
S'\nTaylor wanted to turn the ball on the leg side but it spun after pitching around middle and took the outside edge to go on the off side  </p>]'
p233
ssS'26.2'
p234
(dp235
g3
S'Taylor'
p236
sg5
S'2 runs'
p237
sg7
S' Jadeja'
p238
sg9
S"\nTaylor pushes forward but isn't to the pitch of the ball  it beats him in the flight and takes the outside edge which goes wide of the slip fielder  </p>]"
p239
ssS'26.3'
p240
(dp241
g3
S'Taylor'
p242
sg5
S'no run'
p243
sg7
S' Jadeja'
p244
sg9
S'\nplayed towards mid-on  where Ashwin dives to his right to save runs  </p>]'
p245
ssS'26.1'
p246
(dp247
g3
S'Taylor'
p248
sg5
S'no run'
p249
sg7
S' Jadeja'
p250
sg9
S'\nTaylor moves forward and defends with a straight bat to the bowler  </p>]'
p251
ssS'14.5'
p252
(dp253
g3
S'Williamson'
p254
sg5
S'no run'
p255
sg7
S' Kohli'
p256
sg9
S"\na full ball and it's driven powerfully towards cover where the fielder dives to stop the shot  </p>]"
p257
ssS'12.3'
p258
(dp259
g3
S'Guptill'
p260
sg5
S'1 run'
p261
sg7
S' I Sharma'
p262
sg9
S'\nfuller length from Ishant  Guptill stays back this time and drives the ball through cover  </p>]'
p263
ssS'14.6'
p264
(dp265
g3
S'Williamson'
p266
sg5
g32
sg7
S' Kohli'
p267
sg9
S'\nstays on to the pads and the batsman moves back and glances it neatly towards the long-leg boundary where the effort by the fielder is poor  Kohli does not like it  </p>]'
p268
ssS'14.1'
p269
(dp270
g3
S'Williamson'
p271
sg5
S'1 run'
p272
sg7
S' Kohli'
p273
sg9
S'\ndriven off the back foot through cover for a single  </p>]'
p274
ssS'14.3'
p275
(dp276
g3
S'Guptill'
p277
sg5
S'1 run'
p278
sg7
S' Kohli'
p279
sg9
S'\nGuptill moves forward and drives to long-on  </p>]'
p280
ssS'12.2'
p281
(dp282
g3
S'Williamson'
p283
sg5
S'3 runs'
p284
sg7
S' I Sharma'
p285
sg9
S'\nshot  Williamson jumps back and drives a short of a length ball with a nice high elbow through cover. This pitch is slow  have I said that before?  </p>]'
p286
ssS'24.4'
p287
(dp288
g3
S'Taylor'
p289
sg5
S'1 run'
p290
sg7
S' Raina'
p291
sg9
S'\nworked off the front foot through midwicket this time  </p>]'
p292
ssS'24.5'
p293
(dp294
g3
S'Williamson'
p295
sg5
S'1 run'
p296
sg7
S' Raina'
p297
sg9
S'\nWilliamson stays in his crease and drives a ball that angles into him through midwicket  </p>]'
p298
ssS'24.6'
p299
(dp300
g3
S'Taylor'
p301
sg5
S'no run'
p302
sg7
S' Raina'
p303
sg9
S'\ndefended back to the bowler from the crease  </p>]'
p304
ssS'14.2'
p305
(dp306
g3
S'Guptill'
p307
sg5
S'no run'
p308
sg7
S' Kohli'
p309
sg9
S'\nplayed back towards the bowler  Kohli is coming off the pitch really slowly  </p>]'
p310
ssS'6.5'
p311
(dp312
g3
S'Guptill'
p313
sg5
g32
sg7
S' Kumar'
p314
sg9
S"\nthat's Guptill's best shot of the day  he transferred his weight on to the back foot to punch a length delivery through cover  timed it well too  </p>]"
p315
ssS'24.2'
p316
(dp317
g3
S'Williamson'
p318
sg5
S'1 run'
p319
sg7
S' Raina'
p320
sg9
S'\nworked off the pads through midwicket  </p>]'
p321
ssS'24.3'
p322
(dp323
g3
S'Taylor'
p324
sg5
S'no run'
p325
sg7
S' Raina'
p326
sg9
S'\nTaylor moves forward  the ball is angling down leg  he clips it to square leg  </p>]'
p327
ssS'22.2'
p328
(dp329
g3
S'Williamson'
p330
sg5
S'1 run'
p331
sg7
S' Raina'
p332
sg9
S'\nsteps out to get to the pitch of the ball and clips it through midwicket to bring up a fluent half-century  </p>]'
p333
ssS'22.3'
p334
(dp335
g3
S'Taylor'
p336
sg5
S'no run'
p337
sg7
S' Raina'
p338
sg9
S'\nshorter length and it turned into Taylor  who went back to play on the off side and then checked his shot  </p>]'
p339
ssS'6.4'
p340
(dp341
g3
S'Williamson'
p342
sg5
S'1 run'
p343
sg7
S' Kumar'
p344
sg9
S'\nshort of a length outside off  Williamson stays in his crease and punches wide of mid-off for a single  </p>]'
p345
ssS'22.6'
p346
(dp347
g3
S'Taylor'
p348
sg5
S'no run'
p349
sg7
S' Raina'
p350
sg9
S"\nTaylor comes forward but can't place his push to beat midwicket  </p>]"
p351
ssS'22.4'
p352
(dp353
g3
S'Taylor'
p354
sg5
S'1 run'
p355
sg7
S' Raina'
p356
sg9
S'\nplayed through midwicket for a single  </p>]'
p357
ssS'22.5'
p358
(dp359
g3
S'Williamson'
p360
sg5
S'1 run'
p361
sg7
S' Raina'
p362
sg9
S'\nWilliamson moves forward and flicks the ball through midwicket for one more  </p>]'
p363
ssS'7.6'
p364
(dp365
g3
S'Williamson'
p366
sg5
g32
sg7
S' Mohammed Shami'
p367
sg9
S"\ntoo short  giving Williamson plenty of time to swivel and pull between midwicket and mid-on  hasn't timed it perfectly but it still beats Ishant to the boundary  </p>]"
p368
ssS'6.2'
p369
(dp370
g3
S'Williamson'
p371
sg5
S'no run'
p372
sg7
S' Kumar'
p373
sg9
S'\ngood length outside off  he lets another one go  </p>]'
p374
ssS'35.435.435.435.435.435.435.435.435.435.4'
p375
(dp376
g3
S'Anderson'
p377
sg5
g207
sg7
S' Mohammed Shami'
p378
sg9
S"\nanother short ball outside off but this time it is too high over the batsman's head  </p>]"
p379
ssS'7.4'
p380
(dp381
g3
S'Williamson'
p382
sg5
S'no run'
p383
sg7
S' Mohammed Shami'
p384
sg9
S'\nhe lets the ball go outside off stump  </p>]'
p385
ssS'34.6'
p386
(dp387
g3
S'Taylor'
p388
sg5
g32
sg7
S' Jadeja'
p389
sg9
S'\nTaylor steps out and lofts the ball inside out over cover for another boundary  he got to the pitch of that one nicely. The first over of the batting Powerplay has cost India 13  </p>]'
p390
ssS'34.5'
p391
(dp392
g3
S'Taylor'
p393
sg5
g32
sg7
S' Jadeja'
p394
sg9
S'\nTaylor waits in his crease and dabs the ball late as it spins away from him  placing it wide of the man at first slip. This outfield is quick  despite the rain  </p>]'
p395
ssS'7.5'
p396
(dp397
g3
S'Williamson'
p398
sg5
S'2 runs'
p399
sg7
S' Mohammed Shami'
p400
sg9
S'\nstrays on to the pads and Williamson flicks it off his hips towards long leg  Dhawan dives to his right to save the boundary  </p>]'
p401
ssS'34.3'
p402
(dp403
g3
S'Anderson'
p404
sg5
g32
sg7
S' Jadeja'
p405
sg9
S'\na bit short and Anderson rocks back and pulls the ball hard to the midwicket boundary.  </p>]'
p406
ssS'34.2'
p407
(dp408
g3
S'Anderson'
p409
sg5
S'no run'
p410
sg7
S' Jadeja'
p411
sg9
S'\npushed from the crease to midwicket  </p>]'
p412
ssS'34.1'
p413
(dp414
g3
S'Williamson'
p415
sg5
S'OUT'
p416
sg7
S' Jadeja'
p417
sg9
S"\nWilliamson's been stumped! He charged down the track but was beaten by the flight and drift from Jadeja from round the wicket. Williamson tried to hit inside out over the off side but the ball dipped  pitched on middle and off and spun away to beat the bat. Dhoni had an easy stumping to make. The third umpire was not required  </p>]"
p418
ssS'24.1'
p419
(dp420
g3
S'Williamson'
p421
sg5
S'no run'
p422
sg7
S' Raina'
p423
sg9
S'\ncut off the back foot to point once again  </p>]'
p424
ssS'3.6'
p425
(dp426
g3
S'Guptill'
p427
sg5
S'no run'
p428
sg7
S' Mohammed Shami'
p429
sg9
S'\n143 kph  good length outside off  Guptill shoulders arms  </p>]'
p430
ssS'3.4'
p431
(dp432
g3
S'Ryder'
p433
sg5
S'no run'
p434
sg7
S' Mohammed Shami'
p435
sg9
S'\nShami replies with a bouncer and Ryder lets it pass  </p>]'
p436
ssS'3.5'
p437
(dp438
g3
S'Ryder'
p439
sg5
S'1 run'
p440
sg7
S' Mohammed Shami'
p441
sg9
S'\na length delivery on the pads  Ryder stays back and clips the ball behind square  </p>]'
p442
ssS'3.2'
p443
(dp444
g3
S'Ryder'
p445
sg5
g32
sg7
S' Mohammed Shami'
p446
sg9
S"\nhe's seeing it so good today  there's room outside off to work with and Ryder stays in his crease and threads the gap between two fielders at point with a precise cut  </p>]"
p447
ssS'3.3'
p448
(dp449
g3
S'Ryder'
p450
sg5
g32
sg7
S' Mohammed Shami'
p451
sg9
S"\nRyder's in a mood! He gets on to the front foot to a fuller and wide ball and cuts hard  hitting the ball into the ground  the bounce takes it high over the fielder at point  </p>]"
p452
ssS'3.1'
p453
(dp454
g3
S'Ryder'
p455
sg5
S'2 runs'
p456
sg7
S' Mohammed Shami'
p457
sg9
S'\nclassy from Ryder  stays back and is so balanced as he stands on the back foot and drives the short of a length ball on the up through cover  </p>]'
p458
ssS'2.3'
p459
(dp460
g3
S'Guptill'
p461
sg5
S'no run'
p462
sg7
S' Kumar'
p463
sg9
S'\nplayed from the crease towards cover  </p>]'
p464
ssS'2.2'
p465
(dp466
g3
S'Guptill'
p467
sg5
S'no run'
p468
sg7
S' Kumar'
p469
sg9
S'\n130 kph  gets behind the line of a good length delivery and defends on the leg side  </p>]'
p470
ssS'2.1'
p471
(dp472
g3
S'Guptill'
p473
sg5
S'no run'
p474
sg7
S' Kumar'
p475
sg9
S'\ngood length outside off  Guptill strides forward and shoulders arms  </p>]'
p476
ssS'36.6'
p477
(dp478
g3
S'Taylor'
p479
sg5
S'1 run'
p480
sg7
S' Kumar'
p481
sg9
S'\nkeeps the strike by driving a full ball past the bowler towards long off  </p>]'
p482
ssS'36.1'
p483
(dp484
g3
S'Taylor'
p485
sg5
S'1 run'
p486
sg7
S' Kumar'
p487
sg9
S'\na full ball  nearly in the blockhole  Taylor moves forward and across and pushes it towards long on  he wants two  Anderson says one  </p>]'
p488
ssS'2.6'
p489
(dp490
g3
S'Guptill'
p491
sg5
S'no run'
p492
sg7
S' Kumar'
p493
sg9
S"\ndefended on the back foot on the off side  Bhunveshwar bowls the game's first maiden over  </p>]"
p494
ssS'2.5'
p495
(dp496
g3
S'Guptill'
p497
sg5
S'no run'
p498
sg7
S' Kumar'
p499
sg9
S'\n134 kph  Guptill is beaten by one that pitches just outside off and holds its line  he moved back and across to defend but played down the wrong line  </p>]'
p500
ssS'2.4'
p501
(dp502
g3
S'Guptill'
p503
sg5
S'no run'
p504
sg7
S' Kumar'
p505
sg9
S'\nthat was fuller and much wider outside off at 130 kph  still not much movement  Guptill lets it go again  </p>]'
p506
ssS'20.1'
p507
(dp508
g3
S'Williamson'
p509
sg5
S'no run'
p510
sg7
S' Raina'
p511
sg9
S'\ntries to work the ball on the leg side but misses  </p>]'
p512
ssS'20.2'
p513
(dp514
g3
S'Williamson'
p515
sg5
S'no run'
p516
sg7
S' Raina'
p517
sg9
S"\nshort ball and Williamson goes back to pull but can't beat square leg  </p>]"
p518
ssS'20.3'
p519
(dp520
g3
S'Williamson'
p521
sg5
g14
sg7
S' Raina'
p522
sg9
S'\nWilliamson jumps out of his crease to get to the pitch of the ball and lofts the ball cleanly over the deep midwicket boundary  clean strike  </p>]'
p523
ssS'20.4'
p524
(dp525
g3
S'Williamson'
p526
sg5
S'1 run'
p527
sg7
S' Raina'
p528
sg9
S'\nshort ball pulled to deep midwicket  </p>]'
p529
ssS'20.5'
p530
(dp531
g3
S'Guptill'
p532
sg5
g416
sg7
S' Raina'
p533
sg9
S"\nGuptill  what have you done? A part-timer's got the breakthrough. He played a half-sweep/half-pull and ended up top-edging a harmless delivery straight to Shami at short fine leg  </p>]"
p534
ssS'20.6'
p535
(dp536
g3
S'Taylor'
p537
sg5
S'1 run'
p538
sg7
S' Raina'
p539
sg9
S'\nTaylor meets the full ball on the front foot and drives to long-on  </p>]'
p540
ssS'22.1'
p541
(dp542
g3
S'Williamson'
p543
sg5
S'no run'
p544
sg7
S' Raina'
p545
sg9
S'\na wicket to wicket line from Raina  played back to the bowler  </p>]'
p546
ssS'39.1'
p547
(dp548
g3
S'Taylor'
p549
sg5
S'1 run'
p550
sg7
S' Mohammed Shami'
p551
sg9
S'\nin the blockhole outside off  Taylor squeezes it out towards cover with a drive  they scamper a single to the fielder on the edge of the inner circle  </p>]'
p552
ssS'21.5'
p553
(dp554
g3
S'Taylor'
p555
sg5
S'1 run'
p556
sg7
S' Jadeja'
p557
sg9
S'\nsteps out of his crease to meet the ball on the pitch and drives to long off for a single  </p>]'
p558
ssS'40.2'
p559
(dp560
g3
S'Mills'
p561
sg5
S'1 run'
p562
sg7
S' Kumar'
p563
sg9
S'\nin the blockhole once again  Mills taps it towards long on for a single  </p>]'
p564
ssS'40.3'
p565
(dp566
g3
S'Ronchi'
p567
sg5
S'1 run'
p568
sg7
S' Kumar'
p569
sg9
S"\nanother blockhole delivery  Ronchi can't get under it  he pushes it into the covers for a single  </p>]"
p570
ssS'40.1'
p571
(dp572
g3
S'McCullum'
p573
sg5
g416
sg7
S' Kumar'
p574
sg9
S'\nbowled him! Bhuvneshwar hits the blockhole with an upright seam  McCullum is late in bringing his bat down and the ball creeps under it to hit the stumps. India staging a late fightback  </p>]'
p575
ssS'40.6'
p576
(dp577
g3
S'Ronchi'
p578
sg5
S'1 run'
p579
sg7
S' Kumar'
p580
sg9
S"\na low full toss  Ronchi drives it hard and straight  the ball ricochets off Mills' bat at the non-striker's end and goes towards long on  </p>]"
p581
ssS'40.4'
p582
(dp583
g3
S'Mills'
p584
sg5
S'1 run'
p585
sg7
S' Kumar'
p586
sg9
S'\nfull and straight  hit from the crease towards long on for one more  </p>]'
p587
ssS'40.5'
p588
(dp589
g3
S'Ronchi'
p590
sg5
g32
sg7
S' Kumar'
p591
sg9
S"\nhe's missed his length and bowled a full toss  Ronchi charged him and smashed the ball back over his head extremely hard  </p>]"
p592
ssS'27.3'
p593
(dp594
g3
S'Williamson'
p595
sg5
g32
sg7
S' Ashwin'
p596
sg9
S'\nshorter length outside off  giving Williamson the time to move back and drive the ball into the gap on the cover boundary  </p>]'
p597
ssS'27.2'
p598
(dp599
g3
S'Williamson'
p600
sg5
S'no run'
p601
sg7
S' Ashwin'
p602
sg9
S'\nturned off the pads to square leg  </p>]'
p603
ssS'27.1'
p604
(dp605
g3
S'Williamson'
p606
sg5
S'no run'
p607
sg7
S' Ashwin'
p608
sg9
S'\nplayed from the crease to midwicket  </p>]'
p609
ssS'21.6'
p610
(dp611
g3
S'Williamson'
p612
sg5
S'1 run'
p613
sg7
S' Jadeja'
p614
sg9
S'\ngoes back and across to work the ball through midwicket  </p>]'
p615
ssS'27.6'
p616
(dp617
g3
S'Taylor'
p618
sg5
g32
sg7
S' Ashwin'
p619
sg9
S'\nTaylor brings out the sweep  hitting the ball from outside off and making good contact  it races to the fine leg boundary  </p>]'
p620
ssS'27.5'
p621
(dp622
g3
S'Taylor'
p623
sg5
S'no run'
p624
sg7
S' Ashwin'
p625
sg9
S'\ndefended on the off side  </p>]'
p626
ssS'27.4'
p627
(dp628
g3
S'Williamson'
p629
sg5
S'1 run'
p630
sg7
S' Ashwin'
p631
sg9
S'\nsteps out this time and drives to long off for a single  </p>]'
p632
ssS'21.1'
p633
(dp634
g3
S'Taylor'
p635
sg5
S'no run'
p636
sg7
S' Jadeja'
p637
sg9
S'\nTaylor moves forward and plays the ball back to the bowler  </p>]'
p638
ssS'12.5'
p639
(dp640
g3
S'Guptill'
p641
sg5
S'no run'
p642
sg7
S' I Sharma'
p643
sg9
S'\na fuller ball on off stump and Guptill meets it on the front foot with a well-timed drive  placed it to mid-off though  </p>]'
p644
ssS'30.4'
p645
(dp646
g3
S'Taylor'
p647
sg5
S'1 run'
p648
sg7
S' I Sharma'
p649
sg9
S'\nthe short ball and Taylor tries to hook  the ball flies off the top edge towards fine leg where it falls short of Shami  </p>]'
p650
ssS'8.28.28.28.28.28.28.28.28.28.2'
p651
(dp652
g3
S'Guptill'
p653
sg5
g207
sg7
S' I Sharma'
p654
sg9
S'\nhis second ball is poor too  full and wider own leg side  too far away for Guptill to glance  </p>]'
p655
ssS'25.1'
p656
(dp657
g3
S'Williamson'
p658
sg5
S'no run'
p659
sg7
S' Ashwin'
p660
sg9
S'\ndefended on the front foot on the off side  </p>]'
p661
ssS'25.3'
p662
(dp663
g3
S'Taylor'
p664
sg5
S'1 run'
p665
sg7
S' Ashwin'
p666
sg9
S'\nnudged off the front foot through midwicket for another no-fuss single  </p>]'
p667
ssS'25.2'
p668
(dp669
g3
S'Williamson'
p670
sg5
S'1 run'
p671
sg7
S' Ashwin'
p672
sg9
S'\nsteps out of the crease and drives the ball in front of square for a single  </p>]'
p673
ssS'25.5'
p674
(dp675
g3
S'Taylor'
p676
sg5
S'1 run'
p677
sg7
S' Ashwin'
p678
sg9
S'\ndriven off the back foot to long on for a single  </p>]'
p679
ssS'25.4'
p680
(dp681
g3
S'Williamson'
p682
sg5
S'1 run'
p683
sg7
S' Ashwin'
p684
sg9
S'\nmoves forward and drives a full ball to long on  </p>]'
p685
ssS'25.6'
p686
(dp687
g3
S'Williamson'
p688
sg5
S'2 runs'
p689
sg7
S' Ashwin'
p690
sg9
S"\nshorter ball  Williamson pulls  it's heading to the square leg boundary but Rahane tumbles and saves the four  </p>]"
p691
ssS'21.2'
p692
(dp693
g3
S'Taylor'
p694
sg5
S'no run'
p695
sg7
S' Jadeja'
p696
sg9
S'\ndefended on the off side  </p>]'
p697
ssS'28.6'
p698
(dp699
g3
S'Williamson'
p700
sg5
S'1 run'
p701
sg7
S' Jadeja'
p702
sg9
S"\nhe wasn't to the pitch of that one but managed to adjust and open the face to play the ball towards point  </p>]"
p703
ssS'23.6'
p704
(dp705
g3
S'Taylor'
p706
sg5
S'no run'
p707
sg7
S' Jadeja'
p708
sg9
S'\nplayed off the back foot to point  </p>]'
p709
ssS'23.5'
p710
(dp711
g3
S'Williamson'
p712
sg5
S'1 run'
p713
sg7
S' Jadeja'
p714
sg9
S'\nhe was looking to play on the leg side but got a leading edge wide of the bowler towards mid off  </p>]'
p715
ssS'23.4'
p716
(dp717
g3
S'Williamson'
p718
sg5
S'no run'
p719
sg7
S' Jadeja'
p720
sg9
S"\nsteps out but isn't to the pitch of the ball  he manages to punch it to mid off though  </p>]"
p721
ssS'23.3'
p722
(dp723
g3
S'Taylor'
p724
sg5
S'1 run'
p725
sg7
S' Jadeja'
p726
sg9
S'\nTaylor moves forward and defends the ball into a gap at cover for a single  </p>]'
p727
ssS'23.2'
p728
(dp729
g3
S'Williamson'
p730
sg5
S'1 run'
p731
sg7
S' Jadeja'
p732
sg9
S'\nworked through midwicket for a single  </p>]'
p733
ssS'23.1'
p734
(dp735
g3
S'Williamson'
p736
sg5
S'no run'
p737
sg7
S' Jadeja'
p738
sg9
S'\nmoves forward and plays the ball with the slight turn away from him towards point  </p>]'
p739
ssS'32.1'
p740
(dp741
g3
S'Williamson'
p742
sg5
S'no run'
p743
sg7
S' I Sharma'
p744
sg9
S'\n132 kph  the short ball outside off  the bounce is rather spongy and loopy  Williamson just lets it go  </p>]'
p745
ssS'32.3'
p746
(dp747
g3
S'Taylor'
p748
sg5
S'1 run'
p749
sg7
S' I Sharma'
p750
sg9
S'\nstrays on to leg again  Taylor moves back and turns the ball off his hips to bring up the 50-run stand for the third wicket  </p>]'
p751
ssS'32.2'
p752
(dp753
g3
S'Williamson'
p754
sg5
S'1 run'
p755
sg7
S' I Sharma'
p756
sg9
S'\n121 kph  a slower ball  Williamson tucks it off his pads in front of square  </p>]'
p757
ssS'32.5'
p758
(dp759
g3
S'Taylor'
p760
sg5
S'1 run'
p761
sg7
S' I Sharma'
p762
sg9
S'\na fuller length outside off  Taylor moves back and across and cuts towards third man  </p>]'
p763
ssS'32.4'
p764
(dp765
g3
S'Williamson'
p766
sg5
S'1 run'
p767
sg7
S' I Sharma'
p768
sg9
S'\nshort of a length outside off  Williamson waits in his crease and opens the face to steer to third man  </p>]'
p769
ssS'32.6'
p770
(dp771
g3
S'Williamson'
p772
sg5
S'1 run'
p773
sg7
S' I Sharma'
p774
sg9
S'\nWilliamson waits a while for the short of a length ball to arrive outside off and then let it run off the open face of his bat towards third man  </p>]'
p775
ssS'33.4'
p776
(dp777
g3
S'Taylor'
p778
sg5
S'2 runs'
p779
sg7
S' Ashwin'
p780
sg9
S'\nTaylor moves across  gets down low and paddle sweeps towards fine leg  </p>]'
p781
ssS'19.4'
p782
(dp783
g3
S'Guptill'
p784
sg5
S'no run'
p785
sg7
S' Ashwin'
p786
sg9
S'\nGuptill moves back and across and plays the ball to midwicket  </p>]'
p787
ssS'33.6'
p788
(dp789
g3
S'Williamson'
p790
sg5
S'1 run'
p791
sg7
S' Ashwin'
p792
sg9
S'\nplayed towards point for a quick single  </p>]'
p793
ssS'33.1'
p794
(dp795
g3
S'Williamson'
p796
sg5
S'1 run'
p797
sg7
S' Ashwin'
p798
sg9
S'\nplayed off the pads behind square for a single  </p>]'
p799
ssS'33.2'
p800
(dp801
g3
S'Taylor'
p802
sg5
S'2 runs'
p803
sg7
S' Ashwin'
p804
sg9
S'\nthat turned and Taylor manages to work it off his pads behind square for single as it begins to rain at Seddon Park ...  </p>]'
p805
ssS'19.5'
p806
(dp807
g3
S'Guptill'
p808
sg5
S'no run'
p809
sg7
S' Ashwin'
p810
sg9
S'\na fuller ball on the pads  driven to midwicket  where the fielder dives to his left to cut it off  </p>]'
p811
ssS'\n'
p812
(dp813
g3
S''
p814
sg5
S' <p class="commsText">\nBen: "It might work on other teams'
p815
sg7
S' '
p816
sg9
S' but the dibbly dobbly is staple fare in NZ. These players have played it since they were in high-school and not much else."\n</p>  <p class="commsText">\n"It\'s a ittle more than a drizzle " says Abhishek Purohit  who\'s our reporter in Hamilton  "but it is overcast in all directions  especially over the ground."\n</p>  <p class="commsText">\nJohn Doe: "Oh My God! MSD again showing that he can be as stubborn as he likes by picking ineffective bowler(s) and then bring in mind the gap part timers only for the opponent to break free. This is truly annoying as an Indian fan  who also knows this is falling to deaf ears :/"\n</p>  <p class="commsText">\nMatt: "Brendon  were you playing in your backyard?"\n</p>  <p class="commsText">\nRakesh S: "@ Brendan; That Ishant is allowed to play cricket at this level itself is a blooming miracle and show\'s the way Indian cricket is managed and how the Pujara\'s & Pathan\'s are kept out  but the Raina\'s & Jadeja\'s are given innumerable oppurtinities by the power\'s that be....."\n</p>  <p class="commsText">\nram: "The intent of Indian Bowlers in recent times is worrying  They bowl to complete 50 overs not to take 10 wickets."\n</p>]'
p817
ssS'19.6'
p818
(dp819
g3
S'Guptill'
p820
sg5
S'no run'
p821
sg7
S' Ashwin'
p822
sg9
S'\ndefended on the front foot  </p>]'
p823
ssS'29.4'
p824
(dp825
g3
S'Williamson'
p826
sg5
S'1 run'
p827
sg7
S' Ashwin'
p828
sg9
S'\ndriven down the ground for a single  </p>]'
p829
ssS'39.6'
p830
(dp831
g3
S'McCullum'
p832
sg5
S'1 run'
p833
sg7
S' Mohammed Shami'
p834
sg9
S'\na low full toss to end the over  McCullum drives to long on for a single. Three runs and two wickets in the over from Shami. Gold for India.  </p>]'
p835
ssS'39.4'
p836
(dp837
g3
S'Taylor'
p838
sg5
g416
sg7
S' Mohammed Shami'
p839
sg9
S"\ncaught behind  Shami's bowling a clever over after Ishant's disastrous one. He bowled a slower short ball and got good height on it too. Taylor pulled far too early and got a top edge that carried through to Dhoni  </p>]"
p840
ssS'37.337.337.337.337.337.337.337.337.337.3'
p841
(dp842
g3
S'Taylor'
p843
sg5
g207
sg7
S' Ashwin'
p844
sg9
S'\nTaylor moves across to swat behind square  Ashwin fires the ball down leg side  </p>]'
p845
ssS'39.2'
p846
(dp847
g3
S'McCullum'
p848
sg5
g416
sg7
S' Mohammed Shami'
p849
sg9
S'\ncaught and bowled first ball! Shami was aiming for the yorker and ended up bowling a very low full toss  McCullum tried to play it towards square leg but closed the face of his bat too early. The ball popped back to the bowler off the leading edge  a simple catch  </p>]'
p850
ssS'39.3'
p851
(dp852
g3
S'Ronchi'
p853
sg5
S'1 run'
p854
sg7
S' Mohammed Shami'
p855
sg9
S'\na tough ball first up  in the blockhole  Ronchi digs it out towards long on for a single  </p>]'
p856
ssS'19.1'
p857
(dp858
g3
S'Guptill'
p859
sg5
S'1 run'
p860
sg7
S' Ashwin'
p861
sg9
S'\ntossed up on middle  Guptill drives to long off on the front foot  </p>]'
p862
ssS'8.1'
p863
(dp864
g3
S'Guptill'
p865
sg5
g32
sg7
S' I Sharma'
p866
sg9
S'\nhis first ball is poor  on the pads  Guptill moves across and glances it between the keeper and leg gully  </p>]'
p867
ssS'21.4'
p868
(dp869
g3
S'Taylor'
p870
sg5
g32
sg7
S' Jadeja'
p871
sg9
S'\na bit too short outside off  Taylor has the space he needs to go back and cut late to the third man boundary  </p>]'
p872
ssS'8.3'
p873
(dp874
g3
S'Guptill'
p875
sg5
S'1 run'
p876
sg7
S' I Sharma'
p877
sg9
S'\nstrays down leg side again  Guptill moves across and works the ball off his hips wide of the fielder at leg gully  </p>]'
p878
ssS'8.2'
p879
(dp880
g3
S'Guptill'
p881
sg5
S'no run'
p882
sg7
S' I Sharma'
p883
sg9
S'\nfull delivery on middle and leg  Guptill is half forward as he pushes towards mid-on  </p>]'
p884
ssS'8.5'
p885
(dp886
g3
S'Williamson'
p887
sg5
S'no run'
p888
sg7
S' I Sharma'
p889
sg9
S'\ngood length on off and middle  Williamson gets behind the line and blocks  </p>]'
p890
ssS'8.4'
p891
(dp892
g3
S'Williamson'
p893
sg5
S'no run'
p894
sg7
S' I Sharma'
p895
sg9
S'\n132 kph  a good length just outside off  Williamson defends solidly on the off side  </p>]'
p896
ssS'21.3'
p897
(dp898
g3
S'Taylor'
p899
sg5
S'no run'
p900
sg7
S' Jadeja'
p901
sg9
S'\nTaylor moves forward and defends on the off side  Jadeja fields himself  </p>]'
p902
ssS'8.6'
p903
(dp904
g3
S'Williamson'
p905
sg5
S'no run'
p906
sg7
S' I Sharma'
p907
sg9
S"\nends the over with a terrific delivery  gets the ball to pitch on a good length and bounce a bit more than usual on this surface  there was some away movement too  Williamson pushed forward to defend and was beaten. Ishant's finished his first over well after two poor deliveries at the start  </p>]"
p908
ssS'19.3'
p909
(dp910
g3
S'Williamson'
p911
sg5
S'1 run'
p912
sg7
S' Ashwin'
p913
sg9
S'\ngoes back into his crease to nudge off his pads through square  </p>]'
p914
ssS'30.3'
p915
(dp916
g3
S'Taylor'
p917
sg5
S'no run'
p918
sg7
S' I Sharma'
p919
sg9
S'\ngood length around off stump  Taylor gets behind it and defends with a straight bat  </p>]'
p920
ssS'3.53.53.53.53.53.53.53.53.53.5'
p921
(dp922
g3
S'Ryder'
p923
sg5
g207
sg7
S' Mohammed Shami'
p924
sg9
S"\nanother bouncer but this time it sails over the batsman's head and is called a wide  </p>]"
p925
ssS'9.4'
p926
(dp927
g3
S'Guptill'
p928
sg5
S'no run'
p929
sg7
S' Kumar'
p930
sg9
S'\n134 kph  good length pitching outside off and coming into the right-hander  Guptill gets behind the line and blocks  </p>]'
p931
ssS'9.5'
p932
(dp933
g3
S'Guptill'
p934
sg5
S'no run'
p935
sg7
S' Kumar'
p936
sg9
S'\ndefended back to the bowler  </p>]'
p937
ssS'9.6'
p938
(dp939
g3
S'Guptill'
p940
sg5
S'1 run'
p941
sg7
S' Kumar'
p942
sg9
S"\nGuptill sees mid-off is a bit slow in getting off the blocks and calls for a quick single after tapping the ball off the back foot  there's a direct hit at the striker's end but Williamson is safe  </p>]"
p943
ssS'9.1'
p944
(dp945
g3
S'Guptill'
p946
sg5
S'no run'
p947
sg7
S' Kumar'
p948
sg9
S'\ngood length on off and middle  played back to the bowler  </p>]'
p949
ssS'9.2'
p950
(dp951
g3
S'Guptill'
p952
sg5
S'no run'
p953
sg7
S' Kumar'
p954
sg9
S'\n134 kph  Guptill stays back to a delivery that is a bit full and plays the ball on the off side  the bat face opened as the ball made contact with it  </p>]'
p955
ssS'9.3'
p956
(dp957
g3
S'Guptill'
p958
sg5
S'no run'
p959
sg7
S' Kumar'
p960
sg9
S"\nthat's not that short either but Guptill stays back and pulls  doesn't beat midwicket  </p>]"
p961
ssS'34.4'
p962
(dp963
g3
S'Anderson'
p964
sg5
S'1 run'
p965
sg7
S' Jadeja'
p966
sg9
S'\nplayed to long on for a single  </p>]'
p967
ssS'41.6'
p968
(dp969
g3
S'Ronchi'
p970
sg5
S'1 run'
p971
sg7
S' Mohammed Shami'
p972
sg9
S'\nnearly in the blockhole and Ronchi drives it towards long on  </p>]'
p973
ssS'41.5'
p974
(dp975
g3
S'Ronchi'
p976
sg5
g32
sg7
S' Mohammed Shami'
p977
sg9
S'\nthis is a super shot  Ronchi moves forward and outside leg to make room and drive a length ball flat over extra cover  three dots and then ten off the next two balls  </p>]'
p978
ssS'41.4'
p979
(dp980
g3
S'Ronchi'
p981
sg5
g14
sg7
S' Mohammed Shami'
p982
sg9
S"\nthat's really unlucky for Shami  he's bowled a sharp bouncer and Ronchi slogged at it wildly. He got a top edge  and a really solid top edge because the ball sailed over the long-stop boundary  </p>]"
p983
ssS'41.3'
p984
(dp985
g3
S'Ronchi'
p986
sg5
S'no run'
p987
sg7
S' Mohammed Shami'
p988
sg9
S'\nthis is a terrific start to the final over  Shami bowls a slower ball on a good length  Ronchi mis-times it towards the bowler  </p>]'
p989
ssS'41.2'
p990
(dp991
g3
S'Ronchi'
p992
sg5
S'no run'
p993
sg7
S' Mohammed Shami'
p994
sg9
S'\n140 kph  a length ball outside off  Ronchi backed away a touch and then cut but missed the ball  </p>]'
p995
ssS'30.1'
p996
(dp997
g3
S'Williamson'
p998
sg5
S'no run'
p999
sg7
S' I Sharma'
p1000
sg9
S'\ngood length outside off  Williamson punches from his crease on the off side  </p>]'
p1001
ssS'30.6'
p1002
(dp1003
g3
S'Taylor'
p1004
sg5
S'1 run'
p1005
sg7
S' I Sharma'
p1006
sg9
S'\nTaylor mis-times the pick-up shot against a length ball angling into him and it falls safely on the edge of the circle at midwicket  </p>]'
p1007
ssS'28.1'
p1008
(dp1009
g3
S'Williamson'
p1010
sg5
S'1 run'
p1011
sg7
S' Jadeja'
p1012
sg9
S'\ndriven on the front foot to long off  </p>]'
p1013
ssS'28.2'
p1014
(dp1015
g3
S'Taylor'
p1016
sg5
S'no run'
p1017
sg7
S' Jadeja'
p1018
sg9
S'\ndefended back to the bowler  </p>]'
p1019
ssS'28.3'
p1020
(dp1021
g3
S'Taylor'
p1022
sg5
S'no run'
p1023
sg7
S' Jadeja'
p1024
sg9
S'\ndefended on the back foot  </p>]'
p1025
ssS'28.4'
p1026
(dp1027
g3
S'Taylor'
p1028
sg5
S'1 run'
p1029
sg7
S' Jadeja'
p1030
sg9
S'\na fuller ball angling into the right-hander  driven on the front foot towards long on  </p>]'
p1031
ssS'28.5'
p1032
(dp1033
g3
S'Williamson'
p1034
sg5
S'no run'
p1035
sg7
S' Jadeja'
p1036
sg9
S'\nWilliamson wanted to play on the leg but the turn forced him to defend on the off  </p>]'
p1037
ssS'7.3'
p1038
(dp1039
g3
S'Williamson'
p1040
sg5
S'no run'
p1041
sg7
S' Mohammed Shami'
p1042
sg9
S'\npunched from the crease towards mid-off  </p>]'
p1043
ssS'15.5'
p1044
(dp1045
g3
S'Guptill'
p1046
sg5
g32
sg7
S' Jadeja'
p1047
sg9
S'\nthe length is too short  giving Guptill the freedom to go back and cut from close to off stump  beating the fielder at backward point  </p>]'
p1048
ssS'19.2'
p1049
(dp1050
g3
S'Williamson'
p1051
sg5
S'no run'
p1052
sg7
S' Ashwin'
p1053
sg9
S'\nAshwin dives to his right to prevent a Williamson push from going past  </p>]'
p1054
ssS'38.2'
p1055
(dp1056
g3
S'Anderson'
p1057
sg5
g14
sg7
S' I Sharma'
p1058
sg9
S'\nthat length is rubbish  allows Anderson o get under a half-volley and with enough room outside off to free his arms  he carts the ball far over long-off  this one is not caught in the stands  </p>]'
p1059
ssS'39.5'
p1060
(dp1061
g3
S'McCullum'
p1062
sg5
S'no run'
p1063
sg7
S' Mohammed Shami'
p1064
sg9
S'\nalmost blockhole length once again  just outside off  McCullum drives and misses  </p>]'
p1065
ssS'31.6'
p1066
(dp1067
g3
S'Williamson'
p1068
sg5
S'1 run'
p1069
sg7
S' Ashwin'
p1070
sg9
S'\nflat on leg stump  nudged off the pads between square leg and midwicket  </p>]'
p1071
ssS'38.4'
p1072
(dp1073
g3
S'Taylor'
p1074
sg5
S'1 run'
p1075
sg7
S' I Sharma'
p1076
sg9
S'\nin the blockhole and Taylor nudges it towards midwicket for a single  </p>]'
p1077
ssS'31.4'
p1078
(dp1079
g3
S'Taylor'
p1080
sg5
S'1 run'
p1081
sg7
S' Ashwin'
p1082
sg9
S'\nplayed wide of midwicket for a single  </p>]'
p1083
ssS'31.5'
p1084
(dp1085
g3
S'Williamson'
p1086
sg5
S'no run'
p1087
sg7
S' Ashwin'
p1088
sg9
S'\nquicker  skiddy ball  Williamson turns it off his pads to square leg  </p>]'
p1089
ssS'31.2'
p1090
(dp1091
g3
S'Williamson'
p1092
sg5
S'1 run'
p1093
sg7
S' Ashwin'
p1094
sg9
S'\nclipped off the pads in front of square  </p>]'
p1095
ssS'31.3'
p1096
(dp1097
g3
S'Taylor'
p1098
sg5
S'no run'
p1099
sg7
S' Ashwin'
p1100
sg9
S"\nthat's the carrom ball from Ashwin  the length was a bit short though so Taylor adjusted and defended  </p>]"
p1101
ssS'31.1'
p1102
(dp1103
g3
S'Taylor'
p1104
sg5
S'1 run'
p1105
sg7
S' Ashwin'
p1106
sg9
S'\na low full toss  Taylor drives it to long on for a single  </p>]'
p1107
ssS'18.1'
p1108
(dp1109
g3
S'Williamson'
p1110
sg5
S'1 run'
p1111
sg7
S' Raina'
p1112
sg9
S'\npunched off the back foot to deep cover  </p>]'
p1113
ssS'18.3'
p1114
(dp1115
g3
S'Williamson'
p1116
sg5
S'1 run'
p1117
sg7
S' Raina'
p1118
sg9
S'\ngoes back to a fuller ball and dabs it towards point from in front of his stumps  </p>]'
p1119
ssS'18.2'
p1120
(dp1121
g3
S'Guptill'
p1122
sg5
S'1 run'
p1123
sg7
S' Raina'
p1124
sg9
S'\ncut off the back foot to point  </p>]'
p1125
ssS'18.5'
p1126
(dp1127
g3
S'Guptill'
p1128
sg5
S'1 run'
p1129
sg7
S' Raina'
p1130
sg9
S'\npushed off the front foot towards long-on for a single  </p>]'
p1131
ssS'18.4'
p1132
(dp1133
g3
S'Guptill'
p1134
sg5
S'no run'
p1135
sg7
S' Raina'
p1136
sg9
S'\nthat turned into Guptill  who went back to cut but bottom edged it near his feet  </p>]'
p1137
ssS'18.6'
p1138
(dp1139
g3
S'Williamson'
p1140
sg5
S'no run'
p1141
sg7
S' Raina'
p1142
sg9
S"\nbowled quicker through the air and the ball hits Guptill's pads after he misses the glance behind square  </p>]"
p1143
ssS'1.4'
p1144
(dp1145
g3
S'Guptill'
p1146
sg5
S'no run'
p1147
sg7
S' Mohammed Shami'
p1148
sg9
S'\nthe first bouncer of the day and Shami pitched really short to get the ball that high  it looped through to Dhoni after Guptill let it go  </p>]'
p1149
ssS'1.5'
p1150
(dp1151
g3
S'Guptill'
p1152
sg5
S'1 run'
p1153
sg7
S' Mohammed Shami'
p1154
sg9
S'\nclipped off the pads behind square for a single  so Ryder has one ball to face  like he did in the first over  </p>]'
p1155
ssS'1.6'
p1156
(dp1157
g3
S'Ryder'
p1158
sg5
S'no run'
p1159
sg7
S' Mohammed Shami'
p1160
sg9
S'\n140 kph  pitches on a good length in line with the stumps and bounces and slants away from the left-hander from over the wicket  Ryder began to push at the ball but stopped his shot early and let it go  </p>]'
p1161
ssS'1.1'
p1162
(dp1163
g3
S'Guptill'
p1164
sg5
S'no run'
p1165
sg7
S' Mohammed Shami'
p1166
sg9
S'\n135 kph  good length and straight  Guptill gets behind the line and blocks. Hardly any movement for the quicks so far  </p>]'
p1167
ssS'1.2'
p1168
(dp1169
g3
S'Guptill'
p1170
sg5
S'no run'
p1171
sg7
S' Mohammed Shami'
p1172
sg9
S'\n138 kph  fuller length on leg stump  Guptill moves forward and across to flick but misses and gets hit on the outside of his front pad  </p>]'
p1173
ssS'1.3'
p1174
(dp1175
g3
S'Guptill'
p1176
sg5
S'no run'
p1177
sg7
S' Mohammed Shami'
p1178
sg9
S'\na testing line and length on off stump  141 kph  Guptill stays back in his crease and defends on the off side  </p>]'
p1179
ssS'0.1'
p1180
(dp1181
g3
S'Guptill'
p1182
sg5
S'no run'
p1183
sg7
S' Kumar'
p1184
sg9
S"\nwhoops  Guptill nearly gave the bowler a return catch  he closed the face too early to a good length ball and got a leading edge that went too far to Bhuvneshwar's right  </p>]"
p1185
ssS'30.2'
p1186
(dp1187
g3
S'Williamson'
p1188
sg5
S'1 run'
p1189
sg7
S' I Sharma'
p1190
sg9
S'\nWilliamson steps out and then opens the face to steer a length ball behind point  </p>]'
p1191
ssS'0.3'
p1192
(dp1193
g3
S'Guptill'
p1194
sg5
S'2 runs'
p1195
sg7
S' Kumar'
p1196
sg9
S'\n129 kph  Guptil is away with a thick inside edge that goes in front of square leg  he was aiming for straighter  </p>]'
p1197
ssS'0.2'
p1198
(dp1199
g3
S'Guptill'
p1200
sg5
S'no run'
p1201
sg7
S' Kumar'
p1202
sg9
S'\ngood length on off stump  Guptill moves forward and blocks  </p>]'
p1203
ssS'0.5'
p1204
(dp1205
g3
S'Guptill'
p1206
sg5
S'1 run'
p1207
sg7
S' Kumar'
p1208
sg9
S'\n132 kph  a fuller delivery outside off and Guptill moves forward and tries to drive towards mid-off  the ball took the outside edge and squirted past point  </p>]'
p1209
ssS'0.4'
p1210
(dp1211
g3
S'Guptill'
p1212
sg5
S'no run'
p1213
sg7
S' Kumar'
p1214
sg9
S'\na hint of shape away from the right-hander from a good length outside off  Guptill lets it go  </p>]'
p1215
ssS'30.5'
p1216
(dp1217
g3
S'Williamson'
p1218
sg5
S'1 run'
p1219
sg7
S' I Sharma'
p1220
sg9
S'\nWilliamson dabs a good length ball behind point for a single  </p>]'
p1221
ssS'0.6'
p1222
(dp1223
g3
S'Ryder'
p1224
sg5
g32
sg7
S' Kumar'
p1225
sg9
S"\nRyder's smashed his first ball - a full one with lots of width outside off - to the point boundary by moving forward and freeing his arms to cut powerfully  </p>]"
p1226
ssS'38.3'
p1227
(dp1228
g3
S'Anderson'
p1229
sg5
S'1 run'
p1230
sg7
S' I Sharma'
p1231
sg9
S'\nthe slower short ball  Anderson was early on the shot but he adjusted and swatted the ball in front of square leg  </p>]'
p1232
ssS'36.5'
p1233
(dp1234
g3
S'Taylor'
p1235
sg5
g32
sg7
S' Kumar'
p1236
sg9
S'\nthree in a row and Taylor gets to 50! This time he edged a low full toss wide of Dhoni to the third man boundary  Taylor was looking to drive through cover  </p>]'
p1237
ssS'38.1'
p1238
(dp1239
g3
S'Anderson'
p1240
sg5
g14
sg7
S' I Sharma'
p1241
sg9
S"\nhe's been caught in the stands  by a fan in an orange tee-shirt  a one-handed grab to win a $100 grand. Mind-blowing take! Anderson grins  after he had got under a length ball and smashed it over the long-on boundary  </p>]"
p1242
ssS'38.6'
p1243
(dp1244
g3
S'Taylor'
p1245
sg5
S'1 run'
p1246
sg7
S' I Sharma'
p1247
sg9
S'\nshort of a length outside off  Taylor rides the bounce and dabs it down towards point  </p>]'
p1248
ssS'38.5'
p1249
(dp1250
g3
S'Anderson'
p1251
sg5
g416
sg7
S' I Sharma'
p1252
sg9
S"\nhe's gone for it  has he hit it far enough? It's high  very high  but it's not far enough. Dhawan's getting under it at long on  he's back-pedalling to get into position and he judges it superbly. Ishant had bowled a slower ball around a good length to induce the mis-hit from Anderson  </p>]"
p1253
ssS'36.4'
p1254
(dp1255
g3
S'Taylor'
p1256
sg5
g32
sg7
S' Kumar'
p1257
sg9
S'\nwith fine leg in the circle  Taylor moves towards the off side  gets down low  and paddles another full toss wide of short fine leg for another boundary  </p>]'
p1258
ssS'13.6'
p1259
(dp1260
g3
S'Williamson'
p1261
sg5
S'1 run'
p1262
sg7
S' Jadeja'
p1263
sg9
S'\nWilliamson pushes towards long on for a single  </p>]'
p1264
ssS'13.4'
p1265
(dp1266
g3
S'Williamson'
p1267
sg5
S'no run'
p1268
sg7
S' Jadeja'
p1269
sg9
S'\ndefended on the off side  </p>]'
p1270
ssS'13.5'
p1271
(dp1272
g3
S'Williamson'
p1273
sg5
S'no run'
p1274
sg7
S' Jadeja'
p1275
sg9
S'\npushed towards cover off the front foot  </p>]'
p1276
ssS'13.2'
p1277
(dp1278
g3
S'Williamson'
p1279
sg5
g32
sg7
S' Jadeja'
p1280
sg9
S'\ngoes back and uses the shorter length to play a superb back-foot drive to the point boundary  </p>]'
p1281
ssS'13.3'
p1282
(dp1283
g3
S'Williamson'
p1284
sg5
g32
sg7
S' Jadeja'
p1285
sg9
S'\nWilliamson moves forward and then waits before dabbing the ball late  cutting it to the third man boundary  </p>]'
p1286
ssS'13.1'
p1287
(dp1288
g3
S'Williamson'
p1289
sg5
S'no run'
p1290
sg7
S' Jadeja'
p1291
sg9
S'\nWilliamson began to push at the ball and was beaten outside off  </p>]'
p1292
ssS'4.5'
p1293
(dp1294
g3
S'Guptill'
p1295
sg5
S'no run'
p1296
sg7
S' Kumar'
p1297
sg9
S'\nstays in his crease this time to push another good length delivery towards cover  </p>]'
p1298
ssS'4.4'
p1299
(dp1300
g3
S'Guptill'
p1301
sg5
S'no run'
p1302
sg7
S' Kumar'
p1303
sg9
S'\n131 kph  a stingy length on off stump  Guptill strides forward and blocks  </p>]'
p1304
ssS'5.2'
p1305
(dp1306
g3
S'Ryder'
p1307
sg5
g416
sg7
S' Mohammed Shami'
p1308
sg9
S"\nhe's edged it! India have got Ryder. Shami bowled a short of a length ball that angled across the left-hander  Ryder jumped back and tried to upper cut over the slips cordon but was off balance as he did so and got an edge through to Dhoni. I think he was undone by the slowness of this pitch  </p>]"
p1309
ssS'4.6'
p1310
(dp1311
g3
S'Guptill'
p1312
sg5
S'no run'
p1313
sg7
S' Kumar'
p1314
sg9
S'\nmoves slightly back and across in his crease to work the ball towards midwicket  </p>]'
p1315
ssS'4.1'
p1316
(dp1317
g3
S'Ryder'
p1318
sg5
S'no run'
p1319
sg7
S' Kumar'
p1320
sg9
S"\n136 kph  that's accurate from Bhuvneshwar  pitching on middle on a good length  not giving the batsman any room  Ryder defends  </p>]"
p1321
ssS'5.5'
p1322
(dp1323
g3
S'Guptill'
p1324
sg5
S'1 run'
p1325
sg7
S' Mohammed Shami'
p1326
sg9
S'\nstrays on to the pads and Guptill is able to get a single by turning the ball off his hips behind square  </p>]'
p1327
ssS'4.3'
p1328
(dp1329
g3
S'Guptill'
p1330
sg5
S'no run'
p1331
sg7
S' Kumar'
p1332
sg9
S'\ndefended on the back foot on the off side  </p>]'
p1333
ssS'4.2'
p1334
(dp1335
g3
S'Ryder'
p1336
sg5
S'1 run'
p1337
sg7
S' Kumar'
p1338
sg9
S'\ngood length and line once again around middle and off but this time Ryder opens the face late to steer the ball towards third man  </p>]'
p1339
ssS'11.4'
p1340
(dp1341
g3
S'Williamson'
p1342
sg5
S'no run'
p1343
sg7
S' Jadeja'
p1344
sg9
S'\ndefended on the front foot on the off side  </p>]'
p1345
ssS'11.5'
p1346
(dp1347
g3
S'Williamson'
p1348
sg5
S'1 run'
p1349
sg7
S' Jadeja'
p1350
sg9
S'\ndriven off the front foot through cover  </p>]'
p1351
ssS'11.6'
p1352
(dp1353
g3
S'Guptill'
p1354
sg5
S'no run'
p1355
sg7
S' Jadeja'
p1356
sg9
S'\ntight line on middle and off  Guptill moves forward and defends  </p>]'
p1357
ssS'11.1'
p1358
(dp1359
g3
S'Williamson'
p1360
sg5
S'1 run'
p1361
sg7
S' Jadeja'
p1362
sg9
S'\nfull and straight  Williamson drives to long-on for a single  </p>]'
p1363
ssS'11.2'
p1364
(dp1365
g3
S'Guptill'
p1366
sg5
S'no run'
p1367
sg7
S' Jadeja'
p1368
sg9
S'\nbowled slowly to Guptill  who pushes towards mid-off  Jadeja prints across to cut it off himself  </p>]'
p1369
ssS'11.3'
p1370
(dp1371
g3
S'Guptill'
p1372
sg5
S'1 run'
p1373
sg7
S' Jadeja'
p1374
sg9
S'\nplayed towards midwicket off the pads  </p>]'
p1375
ssS'17.2'
p1376
(dp1377
g3
S'Guptill'
p1378
sg5
S'no run'
p1379
sg7
S' Ashwin'
p1380
sg9
S'\nGuptill misses the flick and is hit on the pad  that pitched outside leg stump  </p>]'
p1381
ssS'17.3'
p1382
(dp1383
g3
S'Guptill'
p1384
sg5
S'no run'
p1385
sg7
S' Ashwin'
p1386
sg9
S'\ndriven off the pads to midwicket  </p>]'
p1387
ssS'17.1'
p1388
(dp1389
g3
S'Williamson'
p1390
sg5
S'1 run'
p1391
sg7
S' Ashwin'
p1392
sg9
S'\nfirst ball is on the pads  Williamson drives though midwicket  </p>]'
p1393
ssS'17.6'
p1394
(dp1395
g3
S'Williamson'
p1396
sg5
S'1 run'
p1397
sg7
S' Ashwin'
p1398
sg9
S'\nworked off the pads behind square for a single  </p>]'
p1399
ssS'36.3'
p1400
(dp1401
g3
S'Taylor'
p1402
sg5
g32
sg7
S' Kumar'
p1403
sg9
S'\nTaylor gets under a low full toss and drills it flat and hard wide of the fielder at long-on  it bounces a few feet inside the boundary. Taylor had moved forward and across quickly to get into position  </p>]'
p1404
ssS'17.4'
p1405
(dp1406
g3
S'Guptill'
p1407
sg5
S'no run'
p1408
sg7
S' Ashwin'
p1409
sg9
S'\nbowled slowly through the air on middle and off  defended on the off side  </p>]'
p1410
ssS'17.5'
p1411
(dp1412
g3
S'Guptill'
p1413
sg5
S'1 run'
p1414
sg7
S' Ashwin'
p1415
sg9
S'\nnudged off the front foot through midwicket for one  </p>]'
p1416
ssS'36.2'
p1417
(dp1418
g3
S'Anderson'
p1419
sg5
S'1 run'
p1420
sg7
S' Kumar'
p1421
sg9
S"\na full toss but Anderson can't put it away this time  the line is pretty straight so he clubs it to Dhawan at long-on  </p>]"
p1422
ssS'38.238.238.238.238.238.238.238.238.238.2'
p1423
(dp1424
g3
S'Anderson'
p1425
sg5
g207
sg7
S' I Sharma'
p1426
sg9
S"\nIshant's got the yips by the looks of it  another extremely wide wide outside off stump  </p>]"
p1427
ssS'5.1'
p1428
(dp1429
g3
S'Ryder'
p1430
sg5
g32
sg7
S' Mohammed Shami'
p1431
sg9
S"\nthat wasn't short enough to pull but Ryder does it anyway  smacking it from outside off  it was more of a top edge but the ball fell safely inches from the boundary and trickles over  </p>]"
p1432
ssS'5.3'
p1433
(dp1434
g3
S'Williamson'
p1435
sg5
S'no run'
p1436
sg7
S' Mohammed Shami'
p1437
sg9
S'\ndefended off the back foot on the off side  </p>]'
p1438
ssS'41.1'
p1439
(dp1440
g3
S'Ronchi'
p1441
sg5
S'no run'
p1442
sg7
S' Mohammed Shami'
p1443
sg9
S'\nShami begins the final over with a short ball that beats Ronchi as he tries to back away and slash over the off side  </p>]'
p1444
ssS'29.5'
p1445
(dp1446
g3
S'Taylor'
p1447
sg5
S'no run'
p1448
sg7
S' Ashwin'
p1449
sg9
S'\ndefended from the crease to midwicket  </p>]'
p1450
ssS'5.4'
p1451
(dp1452
g3
S'Williamson'
p1453
sg5
S'1 run'
p1454
sg7
S' Mohammed Shami'
p1455
sg9
S'\nnudged into the leg side for a quick single  </p>]'
p1456
ssS'29.6'
p1457
(dp1458
g3
S'Taylor'
p1459
sg5
S'no run'
p1460
sg7
S' Ashwin'
p1461
sg9
S"\nthe man at leg slip dives to catch the ball but it looks like it came off Taylor's pad as he missed the glance  </p>]"
p1462
ssS'29.1'
p1463
(dp1464
g3
S'Williamson'
p1465
sg5
S'no run'
p1466
sg7
S' Ashwin'
p1467
sg9
S'\nplayed off the front foot to midwicket  </p>]'
p1468
ssS'29.3'
p1469
(dp1470
g3
S'Taylor'
p1471
sg5
S'1 leg bye'
p1472
sg7
S' Ashwin'
p1473
sg9
S'\nTaylor is beaten in the flight as he moves forward and outside off to defend  the ball spins into him and hits the pad and goes past Dhoni for a leg bye  </p>]'
p1474
ssS'29.2'
p1475
(dp1476
g3
S'Williamson'
p1477
sg5
S'1 run'
p1478
sg7
S' Ashwin'
p1479
sg9
S'\nsteps out of his crease and chips the ball to long off for a single  </p>]'
p1480
ssS'15.1'
p1481
(dp1482
g3
S'Guptill'
p1483
sg5
S'no run'
p1484
sg7
S' Jadeja'
p1485
sg9
S'\ndriven firmly into the covers  </p>]'
p1486
ssS'15.2'
p1487
(dp1488
g3
S'Guptill'
p1489
sg5
S'1 run'
p1490
sg7
S' Jadeja'
p1491
sg9
S'\na fuller ball outside off  Guptill moves forward and drives  beats cover this time  </p>]'
p1492
ssS'15.3'
p1493
(dp1494
g3
S'Williamson'
p1495
sg5
S'1 run'
p1496
sg7
S' Jadeja'
p1497
sg9
S'\nWilliamson presses forward and drives to long off  </p>]'
p1498
ssS'15.4'
p1499
(dp1500
g3
S'Guptill'
p1501
sg5
S'no run'
p1502
sg7
S' Jadeja'
p1503
sg9
S'\nplayed towards point on the front foot  </p>]'
p1504
ssS'5.6'
p1505
(dp1506
g3
S'Williamson'
p1507
sg5
S'1 run'
p1508
sg7
S' Mohammed Shami'
p1509
sg9
S'\nagain this pitch is a bit on the slower side  Williamson wanted to play that on the off side and punched too early  the ball went off the inside edge on the leg side  </p>]'
p1510
ssS'15.6'
p1511
(dp1512
g3
S'Guptill'
p1513
sg5
S'1 run'
p1514
sg7
S' Jadeja'
p1515
sg9
S'\ndriven from the crease to long on for a single  </p>]'
p1516
ssS'32.232.232.232.232.232.232.232.232.232.2'
p1517
(dp1518
g3
S'Williamson'
p1519
sg5
g207
sg7
S' I Sharma'
p1520
sg9
S"\nanother one  this time it's too high  above Williamson's head and he lets it go  Ishant had to pitch it in the first one-thirds of the pitch to get it that high  </p>]"
p1521
ss.