(dp0
S'33.5'
p1
(dp2
S'to'
p3
S'Dhoni'
p4
sS'what'
p5
S'1 run'
p6
sS'from'
p7
S' McClenaghan'
p8
sS'why'
p9
S'\nlength on and around off as this one strikes Dhoni on the pads  but it looks as though he got an inside-edge as Mitch goes for the appeal  </p>]'
p10
ssS'35.2'
p11
(dp12
g3
S'Dhoni'
p13
sg5
S'4 run'
p14
sg7
S' McClenaghan'
p15
sg9
S'\nagain on the pads from McClenaghan and he is punished with a delightful clip which races to the fine leg boundary  with no fielder in sight  </p>]'
p16
ssS'35.3'
p17
(dp18
g3
S'Dhoni'
p19
sg5
S'1 leg bye'
p20
sg7
S' McClenaghan'
p21
sg9
S'\nonce again on the pads  but this time crashes into the thigh pad of Dhoni as this is called a leg-bye  </p>]'
p22
ssS'35.1'
p23
(dp24
g3
S'Dhoni'
p25
sg5
S'no run'
p26
sg7
S' McClenaghan'
p27
sg9
S'\npushes this one off the back foot  and then takes a few steps down the track  but is then sent back by the non-striker as the fielder is already on the ball  </p>]'
p28
ssS'35.6'
p29
(dp30
g3
S'Raina'
p31
sg5
S'1 run'
p32
sg7
S' McClenaghan'
p33
sg9
S'\nshortish length which is helped down to deep fine leg with a swivel  </p>]'
p34
ssS'35.4'
p35
(dp36
g3
S'Raina'
p37
sg5
S'no run'
p38
sg7
S' McClenaghan'
p39
sg9
S'\nfuller one angling in on off as Raina deflects this back towards the bowler  </p>]'
p40
ssS'35.5'
p41
(dp42
g3
S'Raina'
p43
sg5
g14
sg7
S' McClenaghan'
p44
sg9
S'\nfuller one on middle and leg which is slammed over cow corner by Raina for a boundary. Can he play an integral knock for India today?  </p>]'
p45
ssS'7.2'
p46
(dp47
g3
S'Sharma'
p48
sg5
S'1 run'
p49
sg7
S' Southee'
p50
sg9
S'\nwent for an expansive drive as he gets a thick outside edge which goes to third man  </p>]'
p51
ssS'6.6'
p52
(dp53
g3
S'Dhawan'
p54
sg5
S'no run'
p55
sg7
S' Mills'
p56
sg9
S'\ntries to work away this delivery shaping into the batsman on the leg side  but Dhawan ends up isnide-edging onto himself  </p>]'
p57
ssS'12.1'
p58
(dp59
g3
S'Kohli'
p60
sg5
S'1 run'
p61
sg7
S' NL McCullum'
p62
sg9
S'\nshort of a length  outside leg  worked away for a single  </p>]'
p63
ssS'7.1'
p64
(dp65
g3
S'Sharma'
p66
sg5
S'no run'
p67
sg7
S' Southee'
p68
sg9
S'\ngets this one to just nibble away outside off as Rohit lets it through  </p>]'
p69
ssS'6.3'
p70
(dp71
g3
S'Sharma'
p72
sg5
S'1 run'
p73
sg7
S' Mills'
p74
sg9
S'\nlength outside off which is dabbed down to third man for one  </p>]'
p75
ssS'12.6'
p76
(dp77
g3
S'Rahane'
p78
sg5
S'1 run'
p79
sg7
S' NL McCullum'
p80
sg9
S'\nshort of a length again  bunted away for an easy single behind square on the leg side  </p>]'
p81
ssS'6.1'
p82
(dp83
g3
S'Sharma'
p84
sg5
S'no run'
p85
sg7
S' Mills'
p86
sg9
S'\nback of a length and left well alone by Sharma  </p>]'
p87
ssS'12.4'
p88
(dp89
g3
S'Rahane'
p90
sg5
S'no run'
p91
sg7
S' NL McCullum'
p92
sg9
S"\ntossed up generously  driven down the ground  but not past NMac's reach  </p>]"
p93
ssS'37.1'
p94
(dp95
g3
S'Jadeja'
p96
sg5
S'1 run'
p97
sg7
S' Anderson'
p98
sg9
S'\nshort ball outside off which Jadeja helps down to short third man for a single. Sensible cricket from the allrounder as Dhoni will need most of the strike from here on in  </p>]'
p99
ssS'37.2'
p100
(dp101
g3
S'Dhoni'
p102
sg5
g14
sg7
S' Anderson'
p103
sg9
S'\n<b>dropped</b> Southee what have you done? You were with Dhoni at CSK  you should know better than to drop him at <i>this</i> stage of the match as Dhoni hammers one from Corey  but this one goes quite high up  threatening not to reach the midwicket boundary  but Southee is unable to get a grasp on it as he lets it fall before continuing on to the rope  </p>]'
p104
ssS'37.3'
p105
(dp106
g3
S'Dhoni'
p107
sg5
g14
sg7
S' Anderson'
p108
sg9
S'\nand luck continues to ride with Dhoni as he ends up getting a thick outside edge to this length ball outside off  which deflects to the keeper  who is unable to get his paws on it as it continues to the right of him to the third man boundary for yet another fortuitous boundary  </p>]'
p109
ssS'37.4'
p110
(dp111
g3
S'Dhoni'
p112
sg5
S'1 run'
p113
sg7
S' Anderson'
p114
sg9
S'\ngets a leading edge of this slower ball on middle as this is directed to the off side  </p>]'
p115
ssS'37.5'
p116
(dp117
g3
S'Jadeja'
p118
sg5
S'1 run'
p119
sg7
S' Anderson'
p120
sg9
S'\nshort of a length as Jadeja goes for the cut  and gets a thickish edge which allows for the single  </p>]'
p121
ssS'37.6'
p122
(dp123
g3
S'Dhoni'
p124
sg5
S'no run'
p125
sg7
S' Anderson'
p126
sg9
S'\ndefended off the back foot to the bowler  and then calls for a quick single as Dhoni tells him to go back  with Jadeja able to beat Anderson to the other end  </p>]'
p127
ssS'10.1'
p128
(dp129
g3
S'Rahane'
p130
sg5
S'no run'
p131
sg7
S' Mills'
p132
sg9
S'\nshort of a length  stump to stump  defended by Rahane  </p>]'
p133
ssS'10.3'
p134
(dp135
g3
S'Kohli'
p136
sg5
S'2 runs'
p137
sg7
S' Mills'
p138
sg9
S'\nsuperb shot. Kohli has spoken about always trying to pull in front of square where he is less likely to be caught. That is what he does here  and manages to clear midwicket  </p>]'
p139
ssS'10.2'
p140
(dp141
g3
S'Rahane'
p142
sg5
S'1 run'
p143
sg7
S' Mills'
p144
sg9
S'\nbouncer  head high  Rahane manages to keep the pull down  gets a single  </p>]'
p145
ssS'10.5'
p146
(dp147
g3
S'Kohli'
p148
sg5
S'1 run'
p149
sg7
S' Mills'
p150
sg9
S'\nshort of a length  on off  gets inside the line  and works it to leg for one  </p>]'
p151
ssS'10.4'
p152
(dp153
g3
S'Kohli'
p154
sg5
g14
sg7
S' Mills'
p155
sg9
S"\nthat's a risky shot. Uncharacteristic. Dancing down with just a prayer. Kohli doesn't usually leave that much to chance. This time  though  he manages to miss the cover field  </p>]"
p156
ssS'10.6'
p157
(dp158
g3
S'Rahane'
p159
sg5
S'no run'
p160
sg7
S' Mills'
p161
sg9
S'\nnice outswinger  just outside off  Rahane defends to mid-on  </p>]'
p162
ssS'33.3'
p163
(dp164
g3
S'Dhoni'
p165
sg5
S'1 run'
p166
sg7
S' McClenaghan'
p167
sg9
S'\nbanged in again as this time Dhoni is hurried into a pull  as he races to the other end  looking for that second  but Raina sends him back  </p>]'
p168
ssS'16.6'
p169
(dp170
g3
S'Kohli'
p171
sg5
S'1 run'
p172
sg7
S' NL McCullum'
p173
sg9
S'\npushes this last one off the back foot to midwicket to end the over  </p>]'
p174
ssS'16.5'
p175
(dp176
g3
S'Rahane'
p177
sg5
S'1 run'
p178
sg7
S' NL McCullum'
p179
sg9
S'\nafforded enough room outside off as Rahane cuts this away in front of square  with Anderson  at short cover  able to get a hand on it as it runs to the off side  </p>]'
p180
ssS'16.4'
p181
(dp182
g3
S'Kohli'
p183
sg5
S'1 run'
p184
sg7
S' NL McCullum'
p185
sg9
S'\nwhipped away down to deep midwicket for one  </p>]'
p186
ssS'16.3'
p187
(dp188
g3
S'Rahane'
p189
sg5
S'1 run'
p190
sg7
S' NL McCullum'
p191
sg9
S'\ngets deep in the crease to this one dragged by Nathan as he finds the man at deep midwicket  </p>]'
p192
ssS'16.2'
p193
(dp194
g3
S'Rahane'
p195
sg5
S'no run'
p196
sg7
S' NL McCullum'
p197
sg9
S'\nnegotiates this one carefully to the off side  </p>]'
p198
ssS'16.1'
p199
(dp200
g3
S'Rahane'
p201
sg5
g14
sg7
S' NL McCullum'
p202
sg9
S'\nRahane looking to clear the infield over extra-cover  but instead gets a fortuitous edge which helps the ball beat short third man to the boundary  </p>]'
p203
ssS'14.4'
p204
(dp205
g3
S'Kohli'
p206
sg5
S'no run'
p207
sg7
S' NL McCullum'
p208
sg9
S'\neased off the back foot to the leg side as he looks increasingly fidgety to get that run  </p>]'
p209
ssS'26.6'
p210
(dp211
g3
S'Kohli'
p212
sg5
S'1 run'
p213
sg7
S' NL McCullum'
p214
sg9
S'\nsteps up to the pitch of the ball before driving this one to long-off for a single  </p>]'
p215
ssS'26.4'
p216
(dp217
g3
S'Dhoni'
p218
sg5
S'2 runs'
p219
sg7
S' NL McCullum'
p220
sg9
S"\nthis time is able to work it away to the leg side with soft hands for a quick single. The non-striker's stumps are thrown down as Dhoni seems to make his ground  and then returns for the second with the overthrow  </p>]"
p221
ssS'26.5'
p222
(dp223
g3
S'Dhoni'
p224
sg5
S'1 run'
p225
sg7
S' NL McCullum'
p226
sg9
S'\npunches this to the covers for a single  </p>]'
p227
ssS'26.2'
p228
(dp229
g3
S'Dhoni'
p230
sg5
S'no run'
p231
sg7
S' NL McCullum'
p232
sg9
S"\npushes this one tentatively to the leg side  but still can't buy a run  </p>]"
p233
ssS'26.3'
p234
(dp235
g3
S'Dhoni'
p236
sg5
g14
sg7
S' NL McCullum'
p237
sg9
S'\nspears this one just outside off as Dhoni is given enough room to club this one straight down the ground for a boundary  </p>]'
p238
ssS'26.1'
p239
(dp240
g3
S'Dhoni'
p241
sg5
S'no run'
p242
sg7
S' NL McCullum'
p243
sg9
S'\nDhoni just dead-bats this round the wicket offering from Nathan to the leg side  </p>]'
p244
ssS'14.5'
p245
(dp246
g3
S'Kohli'
p247
sg5
S'1 run'
p248
sg7
S' NL McCullum'
p249
sg9
S'\nand he finally succeeds with a gentle dab behind square  </p>]'
p250
ssS'12.3'
p251
(dp252
g3
S'Rahane'
p253
sg5
S'no run'
p254
sg7
S' NL McCullum'
p255
sg9
S'\nsome turn as this is flighted just outside off. Defended to leg  </p>]'
p256
ssS'14.6'
p257
(dp258
g3
S'Rahane'
p259
sg5
S'no run'
p260
sg7
S' NL McCullum'
p261
sg9
S'\ntries to get this one away through long-off as he backs away outside leg  but instead hits it back towards the bowler  </p>]'
p262
ssS'14.1'
p263
(dp264
g3
S'Kohli'
p265
sg5
S'no run'
p266
sg7
S' NL McCullum'
p267
sg9
S'\nKohli tries to work this one away to the leg side with a slog sweep  but instead hits this one straight to silly mid-on  </p>]'
p268
ssS'14.3'
p269
(dp270
g3
S'Kohli'
p271
sg5
S'2 runs'
p272
sg7
S' NL McCullum'
p273
sg9
S'\nmakes room for himself outside leg to play this one through the covers  </p>]'
p274
ssS'12.2'
p275
(dp276
g3
S'Rahane'
p277
sg5
S'no run'
p278
sg7
S' NL McCullum'
p279
sg9
S'\nflighted on off  defended to cover  </p>]'
p280
ssS'24.4'
p281
(dp282
g3
S'Kohli'
p283
sg5
S'no run'
p284
sg7
S' NL McCullum'
p285
sg9
S'\nthis time is able to make room to drive this to cover  but the fielder is equal to the task  </p>]'
p286
ssS'24.5'
p287
(dp288
g3
S'Kohli'
p289
sg5
S'1 run'
p290
sg7
S' NL McCullum'
p291
sg9
S'\ndrags this one down the leg side as Kohli steps down before whipping this off the pads to find the single  </p>]'
p292
ssS'24.6'
p293
(dp294
g3
S'Dhoni'
p295
sg5
S'no run'
p296
sg7
S' NL McCullum'
p297
sg9
S'\npresses forward to defend this one as Nathan bowls a tight over for New Zealand  </p>]'
p298
ssS'14.2'
p299
(dp300
g3
S'Kohli'
p301
sg5
S'no run'
p302
sg7
S' NL McCullum'
p303
sg9
S'\non the pads and flicked to midwicket for no runs  </p>]'
p304
ssS'6.5'
p305
(dp306
g3
S'Dhawan'
p307
sg5
S'no run'
p308
sg7
S' Mills'
p309
sg9
S'\ngets behind the line of this length ball on middle and off quite comfortably  </p>]'
p310
ssS'24.2'
p311
(dp312
g3
S'Kohli'
p313
sg5
S'no run'
p314
sg7
S' NL McCullum'
p315
sg9
S'\nshimmies down the track before hitting this one back to the bowler  </p>]'
p316
ssS'24.3'
p317
(dp318
g3
S'Kohli'
p319
sg5
S'no run'
p320
sg7
S' NL McCullum'
p321
sg9
S'\ntries to force this one through the leg side  but finds midwicket  </p>]'
p322
ssS'22.2'
p323
(dp324
g3
S'Kohli'
p325
sg5
S'1 run'
p326
sg7
S' NL McCullum'
p327
sg9
S'\non the front foot and plays that trademark whip square off the wicket on the leg side to bring up a <b>29th ODI fifty</b> </p>]'
p328
ssS'22.3'
p329
(dp330
g3
S'Rahane'
p331
sg5
S'no run'
p332
sg7
S' NL McCullum'
p333
sg9
S'\nRahane looks for the single on the leg side  </p>]'
p334
ssS'6.4'
p335
(dp336
g3
S'Dhawan'
p337
sg5
S'no run'
p338
sg7
S' Mills'
p339
sg9
S'\ndriven quite effortlessly to the man at short cover  </p>]'
p340
ssS'22.6'
p341
(dp342
g3
S'Kohli'
p343
sg5
S'no run'
p344
sg7
S' NL McCullum'
p345
sg9
S'\nturned away to the leg side to end the over  </p>]'
p346
ssS'22.4'
p347
(dp348
g3
S'Rahane'
p349
sg5
S'1 run'
p350
sg7
S' NL McCullum'
p351
sg9
S'\nRahane rushed into this shorter one from Nathan as he plays a short-arm pull which almost carries all the way to Guptill  coming in from deep midwicket  who is not quite able to put in the full stretch dive to catch it. Good effort again from Gups  </p>]'
p352
ssS'22.5'
p353
(dp354
g3
S'Kohli'
p355
sg5
S'2 runs  </p>]'
p356
sg7
S' NL McCullum'
p357
sg9
S''
p358
ssS'7.6'
p359
(dp360
g3
S'Kohli'
p361
sg5
g14
sg7
S' Southee'
p362
sg9
S'\nand Kohli straight away into the swing of things with the most genial of clips which just races to the midwicket boundary thanks to the extraordinary power packed in those wrists of his  </p>]'
p363
ssS'16.416.416.416.416.416.416.416.416.416.4'
p364
(dp365
g3
S'Kohli'
p366
sg5
S'1 wide'
p367
sg7
S' NL McCullum'
p368
sg9
S'\nis content to let this full delivery going down the leg side to the keeper  </p>]'
p369
ssS'6.2'
p370
(dp371
g3
S'Sharma'
p372
sg5
S'no run'
p373
sg7
S' Mills'
p374
sg9
S'\ngets forward to try and work this one leg side  but instead hits to the off  </p>]'
p375
ssS'7.4'
p376
(dp377
g3
S'Dhawan'
p378
sg5
S'OUT'
p379
sg7
S' Southee'
p380
sg9
S'\nand Southee gets him with a yorker on middle and off as the pressure put on these two batsmen have led to this serious error in judgment. Southee gets it in the right place as Dhawan charges him  but is not at all in position to play this as the ball rushes past him to get him bowled  </p>]'
p381
ssS'34.6'
p382
(dp383
g3
S'Raina'
p384
sg5
S'2 runs'
p385
sg7
S' Mills'
p386
sg9
S'\nfull toss which is sliced away by Raina to deep extra-cover  with Guptill diving to his left to stop this before it reaches the boundary. Has been fantastic out there for NZ tonight  </p>]'
p387
ssS'34.5'
p388
(dp389
g3
S'Raina'
p390
sg5
S'no run'
p391
sg7
S' Mills'
p392
sg9
S'\nwell bowled from Mills as he gets this full and wide outside off  with Raina unable to get bat on ball to send this through third man  </p>]'
p393
ssS'7.5'
p394
(dp395
g3
S'Kohli'
p396
sg5
S'no run'
p397
sg7
S' Southee'
p398
sg9
S'\nangling in on Kohli as he gets a leading edge to the covers  </p>]'
p399
ssS'34.3'
p400
(dp401
g3
S'Raina'
p402
sg5
S'1 run'
p403
sg7
S' Mills'
p404
sg9
S'\nyorker on middle as Raina backs away before driving this down to long-off  </p>]'
p405
ssS'34.2'
p406
(dp407
g3
S'Dhoni'
p408
sg5
S'1 run'
p409
sg7
S' Mills'
p410
sg9
S'\nthis time is able to work this off the pads to the leg side for one  </p>]'
p411
ssS'34.1'
p412
(dp413
g3
S'Dhoni'
p414
sg5
S'no run'
p415
sg7
S' Mills'
p416
sg9
S'\nspeared in from round the wicket as Dhoni is unable to get this one away  </p>]'
p417
ssS'24.1'
p418
(dp419
g3
S'Dhoni'
p420
sg5
S'1 run'
p421
sg7
S' NL McCullum'
p422
sg9
S'\nslanting down the pads as Dhoni helps this along behind square  </p>]'
p423
ssS'3.6'
p424
(dp425
g3
S'Sharma'
p426
sg5
S'no run'
p427
sg7
S' McClenaghan'
p428
sg9
S'\non the back foot rigtht away as this is defended towards the covers  </p>]'
p429
ssS'3.4'
p430
(dp431
g3
S'Sharma'
p432
sg5
S'no run'
p433
sg7
S' McClenaghan'
p434
sg9
S'\nstrikes him full on the pads as Rohit has a gentle waft at it  missing the ball entirely. McClenaghan likes it straightaway as he appeals to the umpire  but Rod Tucker determines that this was being pitched outside leg and was doing a bit too much  </p>]'
p435
ssS'3.5'
p436
(dp437
g3
S'Sharma'
p438
sg5
S'no run'
p439
sg7
S' McClenaghan'
p440
sg9
S'\ntoo full from Mitchell as this is driven straight to short cover  </p>]'
p441
ssS'3.2'
p442
(dp443
g3
S'Sharma'
p444
sg5
S'no run'
p445
sg7
S' McClenaghan'
p446
sg9
S'\nworked off the hips to the leg side  but straight to the fielder  </p>]'
p447
ssS'3.3'
p448
(dp449
g3
S'Sharma'
p450
sg5
S'no run'
p451
sg7
S' McClenaghan'
p452
sg9
S'\nplays this one with soft hands to the off side  </p>]'
p453
ssS'3.1'
p454
(dp455
g3
S'Dhawan'
p456
sg5
S'1 run'
p457
sg7
S' McClenaghan'
p458
sg9
S'\nfends this shortish length away behind square on the leg side  </p>]'
p459
ssS'2.3'
p460
(dp461
g3
S'Sharma'
p462
sg5
S'no run'
p463
sg7
S' Mills'
p464
sg9
S"\nplays this one with soft hands to the leg side  but can't pinch a single  </p>]"
p465
ssS'2.2'
p466
(dp467
g3
S'Sharma'
p468
sg5
S'no run'
p469
sg7
S' Mills'
p470
sg9
S'\nshortish length outside off as Rohit fails to cut this away square off the wicket  </p>]'
p471
ssS'2.1'
p472
(dp473
g3
S'Sharma'
p474
sg5
S'no run'
p475
sg7
S' Mills'
p476
sg9
S'\nworked away off the back foot by Rohit  </p>]'
p477
ssS'36.6'
p478
(dp479
g3
S'Dhoni'
p480
sg5
S'2 runs'
p481
sg7
S' Mills'
p482
sg9
S"\nDhoni just stands his ground and hammers this length ball over midwicket  but doesn't have enough on it for it to reach the boundary as deep midwicket is quick to get it  </p>]"
p483
ssS'36.1'
p484
(dp485
g3
S'Raina'
p486
sg5
g379
sg7
S' Mills'
p487
sg9
S'\nand Mills strikes as Raina is baited to go after a fuller one on leg which is hit higher than father towards midwicket  with Southee getting under it comfortably to take this catch. Big wicket for NZ  but the one they really want is still at the crease  </p>]'
p488
ssS'2.6'
p489
(dp490
g3
S'Sharma'
p491
sg5
S'no run'
p492
sg7
S' Mills'
p493
sg9
S'\nmeets this one outside off as he plays this one tentatively to the off side to end the over. Ends a second consecutive maiden for Mills as well  </p>]'
p494
ssS'2.5'
p495
(dp496
g3
S'Sharma'
p497
sg5
S'no run'
p498
sg7
S' Mills'
p499
sg9
S'\npresses forward to defend this fuller one from Mills  </p>]'
p500
ssS'2.4'
p501
(dp502
g3
S'Sharma'
p503
sg5
S'no run'
p504
sg7
S' Mills'
p505
sg9
S'\nlength ball outside off which is met with the full face of the bat  </p>]'
p506
ssS'20.1'
p507
(dp508
g3
S'Kohli'
p509
sg5
S'no run'
p510
sg7
S' NL McCullum'
p511
sg9
S'\nKohli tries to get this one away over Nathan  but ends up hitting it back to the bowler  </p>]'
p512
ssS'20.2'
p513
(dp514
g3
S'Kohli'
p515
sg5
S'1 run'
p516
sg7
S' NL McCullum'
p517
sg9
S'\nis able to fashion a single with a quick glance to the leg side  </p>]'
p518
ssS'20.3'
p519
(dp520
g3
S'Rahane'
p521
sg5
S'no run'
p522
sg7
S' NL McCullum'
p523
sg9
S'\nfull and on the pads as Rahane merely sticks his bat out to angle this straight to short backward square  </p>]'
p524
ssS'20.4'
p525
(dp526
g3
S'Rahane'
p527
sg5
S'1 run'
p528
sg7
S' NL McCullum'
p529
sg9
S'\nworks this one away to long-on for one  </p>]'
p530
ssS'20.5'
p531
(dp532
g3
S'Kohli'
p533
sg5
S'no run'
p534
sg7
S' NL McCullum'
p535
sg9
S'\ndefended away by Kohli to the leg side  </p>]'
p536
ssS'20.6'
p537
(dp538
g3
S'Kohli'
p539
sg5
S'1 run'
p540
sg7
S' NL McCullum'
p541
sg9
S'\nadvances down before clipping fiercely to long-on to retain the strike  </p>]'
p542
ssS'22.1'
p543
(dp544
g3
S'Rahane'
p545
sg5
S'1 run'
p546
sg7
S' NL McCullum'
p547
sg9
S'\nRahane finds the single straight away with a gentle clip down to long-on  </p>]'
p548
ssS'39.1'
p549
(dp550
g3
S'Dhoni'
p551
sg5
g379
sg7
S' Anderson'
p552
sg9
S'\nand Dhoni tries his luck one more time  but it ceases to come to fruition as he miscues this lofted shot off Anderson  with the ball travelling behind to backward point  where Williamson was able to get under the steepler  and more importantly  hold onto the chance. Ends a spirited innings from the Indian captain  </p>]'
p553
ssS'21.5'
p554
(dp555
g3
S'Kohli'
p556
sg5
S'1 run'
p557
sg7
S' Anderson'
p558
sg9
S'\nand this time gets on one knee to just blitz Anderson through the covers for a single. Moves to 49 as a result. Virat continuing to live up to his reputation  </p>]'
p559
ssS'40.540.540.540.540.540.540.540.540.540.5'
p560
(dp561
g3
S'Kumar'
p562
sg5
g367
sg7
S' Southee'
p563
sg9
S'\ntests him with a shorter one which Kumar is unable to reach  with the umpire signalling a wide  </p>]'
p564
ssS'40.2'
p565
(dp566
g3
S'Ashwin'
p567
sg5
g14
sg7
S' Southee'
p568
sg9
S'\nclears his front leg before clobbering Southee through long-on for a boundary  </p>]'
p569
ssS'40.3'
p570
(dp571
g3
S'Ashwin'
p572
sg5
g379
sg7
S' Southee'
p573
sg9
S"\nAshwin has a high backlift and is already in position to get under this as he swats this fuller one over midwicket  but straight into the hands of deep midwicket  and it is that man  Guptill  who takes the catch. Just can't keep the NZ opener out of the match  </p>]"
p574
ssS'40.1'
p575
(dp576
g3
S'Kumar'
p577
sg5
S'1 run'
p578
sg7
S' Southee'
p579
sg9
S'\nmanages to dig this one out to the leg side for one  </p>]'
p580
ssS'40.6'
p581
(dp582
g3
S'Kumar'
p583
sg5
S'1 run'
p584
sg7
S' Southee'
p585
sg9
S'\nfull on middle as Kumar is able to squeeze this away behind square to the fielder at third man  </p>]'
p586
ssS'40.4'
p587
(dp588
g3
S'Kumar'
p589
sg5
g14
sg7
S' Southee'
p590
sg9
S'\ntries to make room to free his arms and succeeds in sticking out his bat to divert this past the keeper to the third man rope  </p>]'
p591
ssS'40.5'
p592
(dp593
g3
S'Kumar'
p594
sg5
g14
sg7
S' Southee'
p595
sg9
S'\nslower ball outside off which Kumar sees early as he waits on it before thrashing this over extra-cover for a much-needed boundary  </p>]'
p596
ssS'27.3'
p597
(dp598
g3
S'Kohli'
p599
sg5
S'1 run'
p600
sg7
S' McClenaghan'
p601
sg9
S'\nable to tuck this fuller one on the pads down to deep fine leg  </p>]'
p602
ssS'27.2'
p603
(dp604
g3
S'Dhoni'
p605
sg5
S'1 run'
p606
sg7
S' McClenaghan'
p607
sg9
S'\nfuller one just outside off which is pushed off the back foot towards mid-off  </p>]'
p608
ssS'27.1'
p609
(dp610
g3
S'Kohli'
p611
sg5
S'1 run'
p612
sg7
S' McClenaghan'
p613
sg9
S'\noff the back foot and helped to the leg side by Kohli  </p>]'
p614
ssS'21.6'
p615
(dp616
g3
S'Rahane'
p617
sg5
S'1 run'
p618
sg7
S' Anderson'
p619
sg9
S'\nRahane forces this one away on the off side for one  </p>]'
p620
ssS'27.6'
p621
(dp622
g3
S'Dhoni'
p623
sg5
S'no run'
p624
sg7
S' McClenaghan'
p625
sg9
S'\nfuller one just outside off which ends up being hit back towards the bowler  as Dhoni was looking to go more through extra-cover  </p>]'
p626
ssS'27.5'
p627
(dp628
g3
S'Dhoni'
p629
sg5
S'no run'
p630
sg7
S' McClenaghan'
p631
sg9
S'\nonce again coming in from outside off as Dhoni is having a bit of difficulty working McClenaghan away to the leg side  </p>]'
p632
ssS'27.4'
p633
(dp634
g3
S'Dhoni'
p635
sg5
S'no run'
p636
sg7
S' McClenaghan'
p637
sg9
S'\nslanting in from outside off as Dhoni inside-edges onto his groin  </p>]'
p638
ssS'21.1'
p639
(dp640
g3
S'Kohli'
p641
sg5
S'2 runs'
p642
sg7
S' Anderson'
p643
sg9
S'\nswipes this length ball away to the leg side  </p>]'
p644
ssS'12.5'
p645
(dp646
g3
S'Rahane'
p647
sg5
S'no run'
p648
sg7
S' NL McCullum'
p649
sg9
S"\nshort of a length  on off  turned away  but can't beat midwicket  </p>]"
p650
ssS'30.4'
p651
(dp652
g3
S'Dhoni'
p653
sg5
g14
sg7
S' Anderson'
p654
sg9
S'\ntoo easy for Dhoni as this is short and wide with Dhoni able to get under it and ramp it over the third man region for a boundary  </p>]'
p655
ssS'21.321.321.321.321.321.321.321.321.321.3'
p656
(dp657
g3
S'Kohli'
p658
sg5
g367
sg7
S' Anderson'
p659
sg9
S'\nslanting down the leg side from Anderson as the umpire signals a wide  </p>]'
p660
ssS'25.3'
p661
(dp662
g3
S'Dhoni'
p663
sg5
S'1 run'
p664
sg7
S' McClenaghan'
p665
sg9
S'\na bit further up from McClenaghan  but on the same line  as Dhoni swivels to pull this away to fine leg  </p>]'
p666
ssS'25.2'
p667
(dp668
g3
S'Kohli'
p669
sg5
S'1 run'
p670
sg7
S' McClenaghan'
p671
sg9
S'\nshort from McClenaghan as Kohli is not afraid to go after him with a hit down to deep midwicket  </p>]'
p672
ssS'25.5'
p673
(dp674
g3
S'Kohli'
p675
sg5
S'no run'
p676
sg7
S' McClenaghan'
p677
sg9
S'\ndefends this latest offering carefully to the leg side  </p>]'
p678
ssS'25.4'
p679
(dp680
g3
S'Kohli'
p681
sg5
S'2 runs'
p682
sg7
S' McClenaghan'
p683
sg9
S'\nanother short one as Kohli pulls this one into the ground towards long-on  </p>]'
p684
ssS'25.6'
p685
(dp686
g3
S'Kohli'
p687
sg5
g14
sg7
S' McClenaghan'
p688
sg9
S'\nfuller one on middle and off as Kohli backs away to create room before slicing him behind square  with a converging sweeper cover  despite putting in the dive  is unable to stop it from tickling the rope at the square boundary. Fantastic improvisation from the Delhite  </p>]'
p689
ssS'5.45.45.45.45.45.45.45.45.45.4'
p690
(dp691
g3
S'Dhawan'
p692
sg5
g367
sg7
S' McClenaghan'
p693
sg9
S"\nfires in a bouncer which climbs quite high over Dhawan's head as this is called a wide by the umpire  </p>]"
p694
ssS'21.2'
p695
(dp696
g3
S'Kohli'
p697
sg5
g14
sg7
S' Anderson'
p698
sg9
S'\nin the correct position to this back of a length ball as he just pulls Anderson in the gap behind square to find the boundary  </p>]'
p699
ssS'28.6'
p700
(dp701
g3
S'Kohli'
p702
sg5
S'1 run'
p703
sg7
S' Anderson'
p704
sg9
S'\nchecks his shot as he plays this one straight to short cover for a tight single  </p>]'
p705
ssS'23.6'
p706
(dp707
g3
S'Dhoni'
p708
sg5
S'1 run'
p709
sg7
S' McClenaghan'
p710
sg9
S'\nshort from McClenaghan and dispatched by the Indian captain to deep fine leg  </p>]'
p711
ssS'23.5'
p712
(dp713
g3
S'Dhoni'
p714
sg5
S'no run'
p715
sg7
S' McClenaghan'
p716
sg9
S'\nand he starts with a back foot defence which is pushed to the bowler  </p>]'
p717
ssS'23.4'
p718
(dp719
g3
S'Rahane'
p720
sg5
g379
sg7
S' McClenaghan'
p721
sg9
S'\nand McClenaghan does it again as he bowls a shorter one which has Rahane going after it with a pull  but it looks as he gets through his shot a bit too early as he gets a faint outside edge which carries comfortably to Ronchi. Big wicket for New Zealand as these two threatened to take the match from them  </p>]'
p722
ssS'23.3'
p723
(dp724
g3
S'Rahane'
p725
sg5
S'no run'
p726
sg7
S' McClenaghan'
p727
sg9
S'\nanother attempted yorker  this time outside off  as Rahane tries to squirt this away behind square on the off side  </p>]'
p728
ssS'23.2'
p729
(dp730
g3
S'Kohli'
p731
sg5
S'1 run'
p732
sg7
S' McClenaghan'
p733
sg9
S'\nzeroing in on the pads as Kohli flicks this effortlessly to square leg  </p>]'
p734
ssS'23.1'
p735
(dp736
g3
S'Rahane'
p737
sg5
S'1 run'
p738
sg7
S' McClenaghan'
p739
sg9
S'\nback of a length and pushed to the off side by Rahane  </p>]'
p740
ssS'32.1'
p741
(dp742
g3
S'Raina'
p743
sg5
S'no run'
p744
sg7
S' Mills'
p745
sg9
S"\nuses his feet to time this one to the off side as the pair start off for a single. Guptill picks this one up at silly mid-on before firing in a throw which just bounces over the stumps as this looked in line to hit. Raina lucky to get away with this one as Gups doesn't miss often  </p>]"
p746
ssS'32.3'
p747
(dp748
g3
S'Raina'
p749
sg5
g14
sg7
S' Mills'
p750
sg9
S'\nshort one from Mills which Raina is able to get on top off and hook to the fine leg boundary. If NZ are to employ these tactics  surely they should have a deep fine leg in place?  </p>]'
p751
ssS'32.2'
p752
(dp753
g3
S'Raina'
p754
sg5
g14
sg7
S' Mills'
p755
sg9
S'\nfull toss just outside off as Raina drives this on the full to mid-off  who makes a complete hash of it as this is allowed through between the legs to the long-off boundary  </p>]'
p756
ssS'32.5'
p757
(dp758
g3
S'Dhoni'
p759
sg5
S'1 run'
p760
sg7
S' Mills'
p761
sg9
S'\ngoing round the wicket now as Dhoni is able to gently clip this fuller one on the pads to the man at fine leg  </p>]'
p762
ssS'32.4'
p763
(dp764
g3
S'Raina'
p765
sg5
S'1 run'
p766
sg7
S' Mills'
p767
sg9
S'\nthis time with the attempted yorker as this low full toss is drilled straight to long-on  </p>]'
p768
ssS'32.6'
p769
(dp770
g3
S'Raina'
p771
sg5
S'no run'
p772
sg7
S' Mills'
p773
sg9
S'\ndrives this low full toss straight to long-off  but hits it a bit too well for the run to be attempted  </p>]'
p774
ssS'33.4'
p775
(dp776
g3
S'Raina'
p777
sg5
S'1 run'
p778
sg7
S' McClenaghan'
p779
sg9
S'\ngoes full this time as Raina is equal to it with a full-bloodied drive to the right of the bowler  with mid-off putting in a dive to stop this one  </p>]'
p780
ssS'19.4'
p781
(dp782
g3
S'Rahane'
p783
sg5
g14
sg7
S' Anderson'
p784
sg9
S'\nbouncer from Anderson which Rahane rocks back to before helping it along its way to the fine leg boundary with a pull  </p>]'
p785
ssS'33.6'
p786
(dp787
g3
S'Raina'
p788
sg5
g14
sg7
S' McClenaghan'
p789
sg9
S'\nin the slot as Raina is able to club this back over long-on to find the boundary  </p>]'
p790
ssS'33.1'
p791
(dp792
g3
S'Dhoni'
p793
sg5
S'no run'
p794
sg7
S' McClenaghan'
p795
sg9
S'\npunched off the back foot by Dhoni straight to silly mid-off  </p>]'
p796
ssS'33.2'
p797
(dp798
g3
S'Dhoni'
p799
sg5
g14
sg7
S' McClenaghan'
p800
sg9
S'\npulled away very fine to the boundary by Dhoni as this somehow runs away to the boundary. The angle of that shot made all the difference there  </p>]'
p801
ssS'19.5'
p802
(dp803
g3
S'Rahane'
p804
sg5
S'1 run'
p805
sg7
S' Anderson'
p806
sg9
S'\nflicked away uppishly through the leg side  </p>]'
p807
ssS'19.6'
p808
(dp809
g3
S'Kohli'
p810
sg5
S'1 run'
p811
sg7
S' Anderson'
p812
sg9
S'\nable to run this one down to short third man for a quick single  </p>]'
p813
ssS'30.230.230.230.230.230.230.230.230.230.2'
p814
(dp815
g3
S'Raina'
p816
sg5
g367
sg7
S' Anderson'
p817
sg9
S'\nslower ball which he gets the line completely wrong on as this heads down the leg side for a wide  </p>]'
p818
ssS'29.4'
p819
(dp820
g3
S'Kohli'
p821
sg5
g379
sg7
S' Southee'
p822
sg9
S'\nand Kohli is gone. You read that right. Kohli is out. Once again looking to slam this one through midwicket  but instead lines up long-on quite nicely as the substitute takes a good low catch to remove the cavalier batsman. Ends a sublime innings as he had another hundred for the taking  </p>]'
p823
ssS'39.6'
p824
(dp825
g3
S'Ashwin'
p826
sg5
S'no run'
p827
sg7
S' Anderson'
p828
sg9
S"\nsteps out to meet this wide delivery outside off  as he gets low to stick his bat out to angle this past Ronchi  but can't get it fine enough as Ronchi is able to collect it from behind  </p>]"
p829
ssS'39.4'
p830
(dp831
g3
S'Jadeja'
p832
sg5
g379
sg7
S' Anderson'
p833
sg9
S'\nand Jadeja is gone with a swipe to the leg side to this slower ball on off. Is far too early in his shot as the ball goes on to knock down his off peg  </p>]'
p834
ssS'39.5'
p835
(dp836
g3
S'Kumar'
p837
sg5
S'1 run'
p838
sg7
S' Anderson'
p839
sg9
S'\nand begins with a single down to long-off  </p>]'
p840
ssS'39.2'
p841
(dp842
g3
S'Jadeja'
p843
sg5
S'1 run'
p844
sg7
S' Anderson'
p845
sg9
S'\nJadeja pulls this one fiercely in front of square for a single  </p>]'
p846
ssS'39.3'
p847
(dp848
g3
S'Ashwin'
p849
sg5
S'1 run'
p850
sg7
S' Anderson'
p851
sg9
S'\nAshwin mistimes this lofted shot through extra-cover  </p>]'
p852
ssS'19.1'
p853
(dp854
g3
S'Kohli'
p855
sg5
S'1 run'
p856
sg7
S' Anderson'
p857
sg9
S'\nsteps down the track before driving Anderson to long-off  </p>]'
p858
ssS'8.1'
p859
(dp860
g3
S'Sharma'
p861
sg5
S'no run'
p862
sg7
S' Mills'
p863
sg9
S"\nturns away this fuller one to the leg side  but can't pinch a single  </p>]"
p864
ssS'21.4'
p865
(dp866
g3
S'Kohli'
p867
sg5
g14
sg7
S' Anderson'
p868
sg9
S'\nand Kohli somehow is able to work this fuller one away through the gap  and it was all to do with his wrists as this is heaved over deep midwicket  beating the fielder coming in from square leg  </p>]'
p869
ssS'8.3'
p870
(dp871
g3
S'Sharma'
p872
sg5
S'6 run'
p873
sg7
S' Mills'
p874
sg9
S'\nMills delivers another length ball in the same channel  except this time Rohit just bludgeons him through the line over long-off for a six. Excellent shot that from Rohit. Just seemed to come out of nowhere  </p>]'
p875
ssS'8.2'
p876
(dp877
g3
S'Sharma'
p878
sg5
S'no run'
p879
sg7
S' Mills'
p880
sg9
S'\nMills gets this in the proper channel outside off as this one shapes away from Rohit as he looks to play this off the back foot through the covers  </p>]'
p881
ssS'8.5'
p882
(dp883
g3
S'Sharma'
p884
sg5
S'1 run'
p885
sg7
S' Mills'
p886
sg9
S'\nshort of a length outside off which is run down to third man for a single  </p>]'
p887
ssS'8.4'
p888
(dp889
g3
S'Sharma'
p890
sg5
S'no run'
p891
sg7
S' Mills'
p892
sg9
S'\nshould have done better with this delivery slanting down the pads as Rohit  looking to glance this  ends up getting a leading edge which goes to the off side  </p>]'
p893
ssS'21.3'
p894
(dp895
g3
S'Kohli'
p896
sg5
S'no run'
p897
sg7
S' Anderson'
p898
sg9
S'\ntries in vain to whip away this slower one from Anderson through the leg side  </p>]'
p899
ssS'8.6'
p900
(dp901
g3
S'Kohli'
p902
sg5
S'no run'
p903
sg7
S' Mills'
p904
sg9
S'\nKohli defends this back of a length delivery outside off with soft hands to end the over  </p>]'
p905
ssS'19.3'
p906
(dp907
g3
S'Kohli'
p908
sg5
S'1 run'
p909
sg7
S' Anderson'
p910
sg9
S'\nwaits on it before deciding to open the face to let this one outside off to short third man  </p>]'
p911
ssS'30.3'
p912
(dp913
g3
S'Raina'
p914
sg5
S'1 run'
p915
sg7
S' Anderson'
p916
sg9
S'\ntries to work this length ball away to the leg side  but instead succeeds in getting a leading edge which ballons over to the off side  but away from any close-in fielders  </p>]'
p917
ssS'9.4'
p918
(dp919
g3
S'Sharma'
p920
sg5
S'no run'
p921
sg7
S' Southee'
p922
sg9
S'\ndefended off the back foot towards the covers with minimal footwork  </p>]'
p923
ssS'9.5'
p924
(dp925
g3
S'Sharma'
p926
sg5
g379
sg7
S' Southee'
p927
sg9
S'\nback of a length outside off which Rohit is enticed to have a flash at as the ball catches a faint outside edge to Ronchi  who takes a simple catch. Southee knows it straight away as he appeals  with Rod Tucker showing the dreaded finger. Another wasted start from Rohit as India in a spot of bother at 37 for 2  </p>]'
p928
ssS'9.6'
p929
(dp930
g3
S'Rahane'
p931
sg5
S'1 leg bye'
p932
sg7
S' Southee'
p933
sg9
S'\nhelps this shortish length delivery on the pads behind square  but is signalled leg-bye by the umpire  </p>]'
p934
ssS'9.1'
p935
(dp936
g3
S'Sharma'
p937
sg5
S'no run'
p938
sg7
S' Southee'
p939
sg9
S'\nsteps out to meet this fuller one from Southee  </p>]'
p940
ssS'9.2'
p941
(dp942
g3
S'Sharma'
p943
sg5
g14
sg7
S' Southee'
p944
sg9
S'\ntests him with a short one as Rohit is quickly onto the back foot before pulling this just behind square to the fine leg boundary  with no fielders in the frame to stop this one  </p>]'
p945
ssS'9.3'
p946
(dp947
g3
S'Sharma'
p948
sg5
S'no run'
p949
sg7
S' Southee'
p950
sg9
S'\nfuller one which is defended outside off by Rohit  </p>]'
p951
ssS'25.1'
p952
(dp953
g3
S'Kohli'
p954
sg5
S'no run'
p955
sg7
S' McClenaghan'
p956
sg9
S'\nthis one curls into Kohli off a shortish length as he defends off the back foot  </p>]'
p957
ssS'34.4'
p958
(dp959
g3
S'Dhoni'
p960
sg5
S'1 run'
p961
sg7
S' Mills'
p962
sg9
S'\nhelped off the pads by Dhoni to the leg side as he wants a second  but Raina sends him back as he sees Guptill closing in on it  </p>]'
p963
ssS'30.1'
p964
(dp965
g3
S'Dhoni'
p966
sg5
S'1 run'
p967
sg7
S' Anderson'
p968
sg9
S'\nDhoni able to maneuver this shorter one from Anderson to deep fine leg  </p>]'
p969
ssS'30.6'
p970
(dp971
g3
S'Dhoni'
p972
sg5
S'1 run'
p973
sg7
S' Anderson'
p974
sg9
S'\nbangs it in again as Dhoni is able to help this to the leg side with a pull  </p>]'
p975
ssS'28.1'
p976
(dp977
g3
S'Kohli'
p978
sg5
g873
sg7
S' Anderson'
p979
sg9
S'\nand Kohli reminds Anderson just who is in charge with a wristy hit which travels well over the deep midwicket rope for six. This is truly a unique shot to Kohli  </p>]'
p980
ssS'28.2'
p981
(dp982
g3
S'Kohli'
p983
sg5
S'no run'
p984
sg7
S' Anderson'
p985
sg9
S'\nand this one is played straight to short cover by the batsman  </p>]'
p986
ssS'28.3'
p987
(dp988
g3
S'Kohli'
p989
sg5
S'2 runs'
p990
sg7
S' Anderson'
p991
sg9
S'\nwidth on offer outside off as Kohli drives this one square off the wicket to sweeper cover  </p>]'
p992
ssS'28.4'
p993
(dp994
g3
S'Kohli'
p995
sg5
S'no run'
p996
sg7
S' Anderson'
p997
sg9
S"\nthis time looks to tee off straight down the ground  but doesn't quite get enough meat on it  </p>]"
p998
ssS'28.5'
p999
(dp1000
g3
S'Kohli'
p1001
sg5
S'no run'
p1002
sg7
S' Anderson'
p1003
sg9
S'\nfull and well wide outside off as Kohli  thinking this might be called a wide  is left smiling as he realises the umpire is not quite seeing it the same way  </p>]'
p1004
ssS'7.3'
p1005
(dp1006
g3
S'Dhawan'
p1007
sg5
S'no run'
p1008
sg7
S' Southee'
p1009
sg9
S'\nfuller one outside off which is hit to the leg side by Dhawan  </p>]'
p1010
ssS'15.5'
p1011
(dp1012
g3
S'Kohli'
p1013
sg5
S'1 run'
p1014
sg7
S' Southee'
p1015
sg9
S'\nshort and heading down the leg side as Kohli pulls this comfortably to deep fine leg  who is able to get behind it  </p>]'
p1016
ssS'19.2'
p1017
(dp1018
g3
S'Rahane'
p1019
sg5
S'1 run'
p1020
sg7
S' Anderson'
p1021
sg9
S'\npunched towards the covers by Rahane as these two look increasingly more at ease at the wicket  </p>]'
p1022
ssS'38.2'
p1023
(dp1024
g3
S'Dhoni'
p1025
sg5
S'no run'
p1026
sg7
S' Southee'
p1027
sg9
S'\nDhoni goes for the big swing and a miss off this length ball outside off  </p>]'
p1028
ssS'31.6'
p1029
(dp1030
g3
S'Raina'
p1031
sg5
S'1 run'
p1032
sg7
S' Southee'
p1033
sg9
S'\ngoes short once more as Raina hits this one into the ground in front of square before setting off for a tight single  just making his ground before the throw is fired in at his end  </p>]'
p1034
ssS'38.4'
p1035
(dp1036
g3
S'Jadeja'
p1037
sg5
S'1 run'
p1038
sg7
S' Southee'
p1039
sg9
S'\nyorker on middle which is directed away to long-off by Jadeja  </p>]'
p1040
ssS'31.4'
p1041
(dp1042
g3
S'Raina'
p1043
sg5
S'1 run'
p1044
sg7
S' Southee'
p1045
sg9
S'\nfull on the leg stump as Raina is able to squeeze this away on the off side for a quick single  </p>]'
p1046
ssS'31.5'
p1047
(dp1048
g3
S'Dhoni'
p1049
sg5
S'1 run'
p1050
sg7
S' Southee'
p1051
sg9
S'\npulled away fiercely by Dhoni to the man at deep midwicket  </p>]'
p1052
ssS'31.2'
p1053
(dp1054
g3
S'Raina'
p1055
sg5
g14
sg7
S' Southee'
p1056
sg9
S'\nterrible short delivery on the leg side which Raina is able to get a hold off and clobber through fine leg for a boundary  with the ball bouncing just before the rope  </p>]'
p1057
ssS'31.3'
p1058
(dp1059
g3
S'Raina'
p1060
sg5
S'no run'
p1061
sg7
S' Southee'
p1062
sg9
S'\nspears in a yorker outside off as Raina gives himself too much room to try and squirt this away through the off side  </p>]'
p1063
ssS'31.1'
p1064
(dp1065
g3
S'Dhoni'
p1066
sg5
S'1 run'
p1067
sg7
S' Southee'
p1068
sg9
S'\ndabbed away off the back foot through point for a single  </p>]'
p1069
ssS'18.1'
p1070
(dp1071
g3
S'Rahane'
p1072
sg5
g14
sg7
S' NL McCullum'
p1073
sg9
S'\nRahane chooses to go up and over the covers with a wonderful strike of the ball  </p>]'
p1074
ssS'18.3'
p1075
(dp1076
g3
S'Rahane'
p1077
sg5
S'1 run'
p1078
sg7
S' NL McCullum'
p1079
sg9
S'\non the back foot as this is worked down to long-on for a single  </p>]'
p1080
ssS'18.2'
p1081
(dp1082
g3
S'Rahane'
p1083
sg5
S'no run'
p1084
sg7
S' NL McCullum'
p1085
sg9
S'\npresses forward to defend this latest offering from Nathan  </p>]'
p1086
ssS'18.5'
p1087
(dp1088
g3
S'Rahane'
p1089
sg5
S'no run'
p1090
sg7
S' NL McCullum'
p1091
sg9
S"\nworked off the pads to the leg side  but can't pinch a single  </p>]"
p1092
ssS'18.4'
p1093
(dp1094
g3
S'Kohli'
p1095
sg5
S'1 run'
p1096
sg7
S' NL McCullum'
p1097
sg9
S'\nKohli advances down the track this time before clipping him behind square for a single son  </p>]'
p1098
ssS'18.6'
p1099
(dp1100
g3
S'Rahane'
p1101
sg5
S'no run'
p1102
sg7
S' NL McCullum'
p1103
sg9
S"\nsame result as before as Nathan's over finally comes to an end  </p>]"
p1104
ssS'1.4'
p1105
(dp1106
g3
S'Dhawan'
p1107
sg5
S'no run'
p1108
sg7
S' McClenaghan'
p1109
sg9
S'\nfuller one in the same channel which is this time driven down to long-off  </p>]'
p1110
ssS'1.5'
p1111
(dp1112
g3
S'Dhawan'
p1113
sg5
S'no run'
p1114
sg7
S' McClenaghan'
p1115
sg9
S'\ncuts in from a length on middle as this is turned away to the leg side  </p>]'
p1116
ssS'1.6'
p1117
(dp1118
g3
S'Dhawan'
p1119
sg5
S'no run'
p1120
sg7
S' McClenaghan'
p1121
sg9
S'\nshort of a length which rises on Dhawan as he plays this one cautiously off the back foot  playing this one down into the ground  </p>]'
p1122
ssS'1.1'
p1123
(dp1124
g3
S'Dhawan'
p1125
sg5
S'no run'
p1126
sg7
S' McClenaghan'
p1127
sg9
S'\nbegins with a length ball on middle and off which is defended back to Mitchell  </p>]'
p1128
ssS'1.2'
p1129
(dp1130
g3
S'Dhawan'
p1131
sg5
S'no run'
p1132
sg7
S' McClenaghan'
p1133
sg9
S'\nwide ball outside off which strays the line as this is collected by the keeper. Could have been a wide that one  </p>]'
p1134
ssS'1.3'
p1135
(dp1136
g3
S'Dhawan'
p1137
sg5
S'no run'
p1138
sg7
S' McClenaghan'
p1139
sg9
S'\ngets some away movement from Dhawan as he looks to loft this over extra-cover  </p>]'
p1140
ssS'0.1'
p1141
(dp1142
g3
S'Dhawan'
p1143
sg5
S'no run'
p1144
sg7
S' Mills'
p1145
sg9
S'\nstarts off with a back of a length ball which is defended by Dhawan off the back foot  </p>]'
p1146
ssS'30.2'
p1147
(dp1148
g3
S'Raina'
p1149
sg5
g14
sg7
S' Anderson'
p1150
sg9
S'\nbacks away to find the gap through backward point for this to run all the way to third man for a boundary  </p>]'
p1151
ssS'0.3'
p1152
(dp1153
g3
S'Sharma'
p1154
sg5
S'no run'
p1155
sg7
S' Mills'
p1156
sg9
S'\nfull and on middle as Rohit defends this one back towards the bowler  </p>]'
p1157
ssS'0.2'
p1158
(dp1159
g3
S'Dhawan'
p1160
sg5
S'1 run'
p1161
sg7
S' Mills'
p1162
sg9
S'\npitches this up on middle and off as Dhawan is off the mark with a drive to mid-off  </p>]'
p1163
ssS'0.5'
p1164
(dp1165
g3
S'Sharma'
p1166
sg5
S'no run'
p1167
sg7
S' Mills'
p1168
sg9
S'\nstrides out to meet this fuller one outside off  </p>]'
p1169
ssS'0.4'
p1170
(dp1171
g3
S'Sharma'
p1172
sg5
g14
sg7
S' Mills'
p1173
sg9
S'\ndriven elegantly by Rohit to the extra-cover boundary as this one just raced off the bat. Such a delightful stroke that from Rohit  </p>]'
p1174
ssS'30.5'
p1175
(dp1176
g3
S'Dhoni'
p1177
sg5
g14
sg7
S' Anderson'
p1178
sg9
S'\nDhoni is starting to tee off now as he shuffles off side before pulling this powerfully through fine leg  beating the fielder who was just a few metres away to the rope  </p>]'
p1179
ssS'0.6'
p1180
(dp1181
g3
S'Sharma'
p1182
sg5
S'no run'
p1183
sg7
S' Mills'
p1184
sg9
S'\npunches this back of a length offering straight to short cover  </p>]'
p1185
ssS'38.3'
p1186
(dp1187
g3
S'Dhoni'
p1188
sg5
S'1 run'
p1189
sg7
S' Southee'
p1190
sg9
S'\ninto position quickly to pull away this short one to the man at deep square leg  </p>]'
p1191
ssS'36.5'
p1192
(dp1193
g3
S'Jadeja'
p1194
sg5
S'1 run'
p1195
sg7
S' Mills'
p1196
sg9
S'\nslower ball on the same line which is run down to short third man for a quick single  </p>]'
p1197
ssS'38.1'
p1198
(dp1199
g3
S'Jadeja'
p1200
sg5
S'1 run'
p1201
sg7
S' Southee'
p1202
sg9
S'\nlow full toss swinging into the pads as Jadeja flicks this away behind square for a single  </p>]'
p1203
ssS'38.6'
p1204
(dp1205
g3
S'Dhoni'
p1206
sg5
S'1 run'
p1207
sg7
S' Southee'
p1208
sg9
S'\nslaps this one away off the back foot down to deep midwicket for a single  </p>]'
p1209
ssS'38.5'
p1210
(dp1211
g3
S'Dhoni'
p1212
sg5
g873
sg7
S' Southee'
p1213
sg9
S'\nand Dhoni plays the most elegant of lofted shots  mistiming this its execution  but the shot is able to carry just far enough for it to go over the extra-cover boundary for six. Also brings up his <b>52nd ODI fifty</b> </p>]'
p1214
ssS'36.4'
p1215
(dp1216
g3
S'Jadeja'
p1217
sg5
g873
sg7
S' Mills'
p1218
sg9
S'\nand Jadeja has announced himself to Hamilton with a shuffle down the tracks before middling this one over long-on with such violence. Where did that come from?  </p>]'
p1219
ssS'13.6'
p1220
(dp1221
g3
S'Kohli'
p1222
sg5
S'1 run'
p1223
sg7
S' Southee'
p1224
sg9
S'\nsensibly dabs this next one from Southee to third man for one  </p>]'
p1225
ssS'13.4'
p1226
(dp1227
g3
S'Kohli'
p1228
sg5
S'no run'
p1229
sg7
S' Southee'
p1230
sg9
S'\ngets an inside-edge on this length ball on and around off as Kohli hits this onto his pad before the ball pops forward towards Southee  who sees it at the last moment and tries a desperate dive to get at it  but the ball lands just before  </p>]'
p1231
ssS'13.5'
p1232
(dp1233
g3
S'Kohli'
p1234
sg5
g873
sg7
S' Southee'
p1235
sg9
S'\njust gorgeous  simply gorgeous from Kohli as he slams this Southee length ball over extra-cover for a six  </p>]'
p1236
ssS'13.2'
p1237
(dp1238
g3
S'Rahane'
p1239
sg5
S'1 run'
p1240
sg7
S' Southee'
p1241
sg9
S'\ngets a deflection off the bat towards the leg side as he looked to defend it to the off side  </p>]'
p1242
ssS'13.3'
p1243
(dp1244
g3
S'Kohli'
p1245
sg5
S'no run'
p1246
sg7
S' Southee'
p1247
sg9
S'\npitched up once more as Kohli is unlucky to find the man at mid-on  </p>]'
p1248
ssS'13.1'
p1249
(dp1250
g3
S'Rahane'
p1251
sg5
S'no run'
p1252
sg7
S' Southee'
p1253
sg9
S'\nfuller one just outside off which is slapped away to mid-on  </p>]'
p1254
ssS'4.5'
p1255
(dp1256
g3
S'Dhawan'
p1257
sg5
S'1 run'
p1258
sg7
S' Mills'
p1259
sg9
S'\nclips this fuller one off the pads behind square to deep fine leg  </p>]'
p1260
ssS'4.4'
p1261
(dp1262
g3
S'Dhawan'
p1263
sg5
S'no run'
p1264
sg7
S' Mills'
p1265
sg9
S'\nthis one kinds of sit up on Dhawan as he fends this away to the off side  </p>]'
p1266
ssS'5.2'
p1267
(dp1268
g3
S'Dhawan'
p1269
sg5
S'no run'
p1270
sg7
S' McClenaghan'
p1271
sg9
S'\nshortish length which is worked away to point  </p>]'
p1272
ssS'4.6'
p1273
(dp1274
g3
S'Sharma'
p1275
sg5
S'1 run'
p1276
sg7
S' Mills'
p1277
sg9
S'\ndabs this winder one outside off the fielder at third man  </p>]'
p1278
ssS'4.1'
p1279
(dp1280
g3
S'Dhawan'
p1281
sg5
S'1 run'
p1282
sg7
S' Mills'
p1283
sg9
S'\npushes this one across Dhawan as he gets an outside edge  playing this with soft hands  to let this drop short of the slip fielder  </p>]'
p1284
ssS'5.5'
p1285
(dp1286
g3
S'Dhawan'
p1287
sg5
S'no run'
p1288
sg7
S' McClenaghan'
p1289
sg9
S'\ndefends this full one straight to the covers  </p>]'
p1290
ssS'4.3'
p1291
(dp1292
g3
S'Sharma'
p1293
sg5
S'1 run'
p1294
sg7
S' Mills'
p1295
sg9
S'\neased away to deep midwicket by Rohit for a couple  </p>]'
p1296
ssS'4.2'
p1297
(dp1298
g3
S'Sharma'
p1299
sg5
S'no run'
p1300
sg7
S' Mills'
p1301
sg9
S'\n<b>dropped</b> and Williamson has caused a massive blunder in the field as Rohit just smashes this length offering straight to him at backward point  but Williamson is unable to hold the chance  </p>]'
p1302
ssS'11.4'
p1303
(dp1304
g3
S'Kohli'
p1305
sg5
S'no run'
p1306
sg7
S' Southee'
p1307
sg9
S'\nshort of a length  on off  defended  </p>]'
p1308
ssS'11.5'
p1309
(dp1310
g3
S'Kohli'
p1311
sg5
S'1 run'
p1312
sg7
S' Southee'
p1313
sg9
S'\nsting-less short ball  pulled away to deep square leg  </p>]'
p1314
ssS'11.6'
p1315
(dp1316
g3
S'Rahane'
p1317
sg5
S'no run'
p1318
sg7
S' Southee'
p1319
sg9
S'\ngoes really wide of the crease  makes Rahane play the angle  and then gets it to swing away beautifully to beat the edge. Classical outswing bowling  </p>]'
p1320
ssS'11.1'
p1321
(dp1322
g3
S'Kohli'
p1323
sg5
S'no run'
p1324
sg7
S' Southee'
p1325
sg9
S'\ndecent outswinger  on off  shaping away late  pushed with an open face  </p>]'
p1326
ssS'11.2'
p1327
(dp1328
g3
S'Kohli'
p1329
sg5
S'no run'
p1330
sg7
S' Southee'
p1331
sg9
S'\ngoes wide of the crease  stays a little short of a length  Kohli defends outside off  </p>]'
p1332
ssS'11.3'
p1333
(dp1334
g3
S'Kohli'
p1335
sg5
g14
sg7
S' Southee'
p1336
sg9
S"\nKohli is taking the risks. Dances down the wicket  smashes this outswinger towards cover. Ryder has a <b>half chance</b> at short cover  but this one is absolutely flying at it. In fact he does well to get a touch to it  which doesn't keep this from crashing into the boundary boards  </p>]"
p1337
ssS'17.2'
p1338
(dp1339
g3
S'Kohli'
p1340
sg5
S'1 run'
p1341
sg7
S' Anderson'
p1342
sg9
S'\ndriven down the ground to long-off for one  </p>]'
p1343
ssS'17.3'
p1344
(dp1345
g3
S'Rahane'
p1346
sg5
S'no run'
p1347
sg7
S' Anderson'
p1348
sg9
S'\nlength on and around off which is negotiated by Rahane  </p>]'
p1349
ssS'17.1'
p1350
(dp1351
g3
S'Kohli'
p1352
sg5
S'no run'
p1353
sg7
S' Anderson'
p1354
sg9
S'\nbegins with a loosener outside off which is driven straight to silly mid-off  </p>]'
p1355
ssS'17.6'
p1356
(dp1357
g3
S'Rahane'
p1358
sg5
S'1 run'
p1359
sg7
S' Anderson'
p1360
sg9
S'\ngets a single down to deep fine leg to signal the fifty-run partnership between these two  </p>]'
p1361
ssS'36.3'
p1362
(dp1363
g3
S'Dhoni'
p1364
sg5
S'1 run'
p1365
sg7
S' Mills'
p1366
sg9
S'\nforced away by Dhoni on the leg side for a single  </p>]'
p1367
ssS'17.4'
p1368
(dp1369
g3
S'Rahane'
p1370
sg5
S'2 runs'
p1371
sg7
S' Anderson'
p1372
sg9
S'\noverpitched and on the pads as this is helped down to deep midwicket  who is a bit casual getting to it as the pair are able to sneak in a second as well  </p>]'
p1373
ssS'17.5'
p1374
(dp1375
g3
S'Rahane'
p1376
sg5
S'no run'
p1377
sg7
S' Anderson'
p1378
sg9
S'\nspeared in on middle as Rahane drives this straight back  with Anderson sticking out a hand to stop it in its tracks  </p>]'
p1379
ssS'18.418.418.418.418.418.418.418.418.418.4'
p1380
(dp1381
g3
S'Kohli'
p1382
sg5
g367
sg7
S' NL McCullum'
p1383
sg9
S'\nNathan has his lines horribly wrong as this one is sent further down the leg side  </p>]'
p1384
ssS'36.2'
p1385
(dp1386
g3
S'Dhoni'
p1387
sg5
S'no run'
p1388
sg7
S' Mills'
p1389
sg9
S'\ntries to work this one away from Mills to the off side  </p>]'
p1390
ssS'5.1'
p1391
(dp1392
g3
S'Sharma'
p1393
sg5
S'1 run'
p1394
sg7
S' McClenaghan'
p1395
sg9
S'\ndriven beautifully down the ground by Rohit  and is intercepted by some good fieldinf  </p>]'
p1396
ssS'5.3'
p1397
(dp1398
g3
S'Dhawan'
p1399
sg5
S'no run'
p1400
sg7
S' McClenaghan'
p1401
sg9
S'\ndriven firmly by Dhawan to the mid-off fielder  </p>]'
p1402
ssS'41.1'
p1403
(dp1404
g3
S'Kumar'
p1405
sg5
g379
sg7
S' Anderson'
p1406
sg9
S'\nand Kumar  in automatic six-hitting mode  ends up top-edging this length ball straight over to deep point  who takes a good catch to remove Bhuvi  </p>]'
p1407
ssS'29.5'
p1408
(dp1409
g3
S'Raina'
p1410
sg5
S'no run'
p1411
sg7
S' Southee'
p1412
sg9
S'\nRaina just prods forward to defend this one to the off side  </p>]'
p1413
ssS'5.4'
p1414
(dp1415
g3
S'Dhawan'
p1416
sg5
g14
sg7
S' McClenaghan'
p1417
sg9
S'\nwide outside off as Dhawan gets low to square cut this through the gap for a boundary. This was hit intentionally in the air  but away from any fielders  </p>]'
p1418
ssS'29.6'
p1419
(dp1420
g3
S'Raina'
p1421
sg5
S'2 runs'
p1422
sg7
S' Southee'
p1423
sg9
S'\nRaina has decided he has had the measure of the pitch as he goes for that trademark heave over cow corner  but gets a bottom edge which flies high towards deep midwicket  but is lucky to fall in no-mans land  </p>]'
p1424
ssS'29.1'
p1425
(dp1426
g3
S'Kohli'
p1427
sg5
S'1 run'
p1428
sg7
S' Southee'
p1429
sg9
S'\nangles this one away on middle to the leg side for a single  </p>]'
p1430
ssS'29.3'
p1431
(dp1432
g3
S'Kohli'
p1433
sg5
g14
sg7
S' Southee'
p1434
sg9
S'\nKohli saw this one early as this slow  </p>]'
p1435
ssS'29.2'
p1436
(dp1437
g3
S'Dhoni'
p1438
sg5
S'1 leg bye'
p1439
sg7
S' Southee'
p1440
sg9
S'\nand tries out a short one which Dhoni is quite early on as this one crashes into his body  before he sets off for the available single  </p>]'
p1441
ssS'15.1'
p1442
(dp1443
g3
S'Kohli'
p1444
sg5
S'1 run'
p1445
sg7
S' Southee'
p1446
sg9
S'\nwhips this back of a length delivery off the pads for a single  </p>]'
p1447
ssS'15.2'
p1448
(dp1449
g3
S'Rahane'
p1450
sg5
S'2 runs'
p1451
sg7
S' Southee'
p1452
sg9
S"\nRahane has had enough as he steps down to lift Southee over extra-cover  but doesn't quite get the timing right on it as this one spoons high in the air  with Guptill running backwards to try in vain to get in a catch. Good effort from Gups  and Rahane survives to fight another day  </p>]"
p1453
ssS'15.3'
p1454
(dp1455
g3
S'Rahane'
p1456
sg5
g14
sg7
S' Southee'
p1457
sg9
S'\nRahane not even fazed by what just transpired as he lofts Southee over extra-cover for a wonderfully timed boundary  </p>]'
p1458
ssS'15.4'
p1459
(dp1460
g3
S'Rahane'
p1461
sg5
S'1 run'
p1462
sg7
S' Southee'
p1463
sg9
S'\ndefends this one on the front foot through the leg side and then sets off for a quick single  which he makes in time  </p>]'
p1464
ssS'5.6'
p1465
(dp1466
g3
S'Dhawan'
p1467
sg5
g14
sg7
S' McClenaghan'
p1468
sg9
S'\nable to squeeze this one through the gap at point to find a boundary. Good comeback from India after the first few miserly overs  </p>]'
p1469
ssS'15.6'
p1470
(dp1471
g3
S'Rahane'
p1472
sg5
S'1 run'
p1473
sg7
S' Southee'
p1474
sg9
S'\nangles this length ball away to midwicket for a single  </p>]'
p1475
ss.